 SapClassGui74D.NET_2008

 Timestamp is 548ba7e8 (Sat Dec 13 10:43:52 2014)

 Preferred load address is 67d80000

 Start         Length     Name                   Class
 0001:00000000 0002fcbeH .text                   CODE
 0001:0002fcc0 000023caH .text$x                 CODE
 0001:00032090 00000538H .text$yc                CODE
 0001:000325d0 00000051H .text$yd                CODE
 0002:00000000 00000bb8H .idata$5                DATA
 0002:00000bb8 00000004H .CRT$XCA                DATA
 0002:00000bbc 0000000cH .CRT$XCC                DATA
 0002:00000bc8 0000006cH .CRT$XCL                DATA
 0002:00000c34 0000000cH .CRT$XCU                DATA
 0002:00000c40 00000004H .CRT$XCZ                DATA
 0002:00000c44 00000004H .CRT$XIA                DATA
 0002:00000c48 00000004H .CRT$XIAA               DATA
 0002:00000c4c 00000004H .CRT$XIC                DATA
 0002:00000c50 00000004H .CRT$XIZ                DATA
 0002:00000c60 00007940H .rdata                  DATA
 0002:000085a0 0000006dH .rdata$debug            DATA
 0002:00008610 00000dd8H .rdata$r                DATA
 0002:000093f0 000001acH .rdata$sxdata           DATA
 0002:0000959c 00000004H .rtc$IAA                DATA
 0002:000095a0 00000074H .rtc$IMZ                DATA
 0002:00009614 00000004H .rtc$IZZ                DATA
 0002:00009618 00000004H .rtc$TAA                DATA
 0002:0000961c 00000074H .rtc$TMZ                DATA
 0002:00009690 00000004H .rtc$TZZ                DATA
 0002:00009698 00001bc4H .xdata$x                DATA
 0002:0000b25c 00000004H ATL$__a                 DATA
 0002:0000b260 00000004H ATL$__z                 DATA
 0002:0000b264 000000c8H .idata$2                DATA
 0002:0000b32c 00000014H .idata$3                DATA
 0002:0000b340 00000bb8H .idata$4                DATA
 0002:0000bef8 00003a28H .idata$6                DATA
 0002:0000f920 00005a64H .edata                  DATA
 0003:00000000 00000d5cH .data                   DATA
 0003:00000d60 00000490H .bss                    DATA
 0004:00000000 000007f0H .rsrc$01                DATA
 0004:000007f0 00007618H .rsrc$02                DATA

  Address         Publics by Value              Rva+Base       Lib:Object

 0000:00000000       __except_list              00000000     <absolute>
 0000:0000006b       ___safe_se_handler_count   0000006b     <absolute>
 0000:00009876       __ldused                   00009876     <absolute>
 0000:00009876       __fltused                  00009876     <absolute>
 0000:00000000       ___ImageBase               67d80000     <linker-defined>
 0001:00000000       ??0CAbortDlg@@QAE@PAVCWnd@@PAVSapTransfer@@H@Z 67d81000 f   AbortDlg.obj
 0001:00000060       ?DoDataExchange@CAbortDlg@@MAEXPAVCDataExchange@@@Z 67d81060 f   AbortDlg.obj
 0001:00000090       ?GetMessageMap@CAbortDlg@@MBEPBUAFX_MSGMAP@@XZ 67d81090 f   AbortDlg.obj
 0001:000000c0       ?GetThisMessageMap@CAbortDlg@@KGPBUAFX_MSGMAP@@XZ 67d810c0 f   AbortDlg.obj
 0001:000000d0       ?OnInitDialog@CAbortDlg@@MAEHXZ 67d810d0 f   AbortDlg.obj
 0001:000001a0       ?OnAbort@CAbortDlg@@IAEXXZ 67d811a0 f   AbortDlg.obj
 0001:000001d0       ?OnTimer@CAbortDlg@@IAEXI@Z 67d811d0 f   AbortDlg.obj
 0001:000002b0       ??_GCAbortDlg@@UAEPAXI@Z   67d812b0 f i AbortDlg.obj
 0001:000002f0       ??1CAbortDlg@@UAE@XZ       67d812f0 f i AbortDlg.obj
 0001:00000320       ??_ECAbortDlg@@UAEPAXI@Z   67d81320 f i AbortDlg.obj
 0001:000003a0       ??0CAcqConfigDlg@@QAE@PAVCWnd@@W4ServerCategory@0@@Z 67d813a0 f   AcqConfigDlg.obj
 0001:00000520       ??0CAcqConfigDlg@@QAE@PAVCWnd@@VSapLocation@@PBDW4ServerCategory@0@@Z 67d81520 f   AcqConfigDlg.obj
 0001:00000760       ??0CAcqConfigDlg@@QAE@PAVCWnd@@PAVSapAcquisition@@PBD@Z 67d81760 f   AcqConfigDlg.obj
 0001:00000a30       ?GetLocation@CAcqConfigDlg@@QAE?AVSapLocation@@XZ 67d81a30 f   AcqConfigDlg.obj
 0001:00000ab0       ?UpdateAcquisition@CAcqConfigDlg@@IAEHXZ 67d81ab0 f   AcqConfigDlg.obj
 0001:00000c00       ?LoadSettings@CAcqConfigDlg@@IAEXXZ 67d81c00 f   AcqConfigDlg.obj
 0001:00000dc0       ?SaveSettings@CAcqConfigDlg@@IAEXXZ 67d81dc0 f   AcqConfigDlg.obj
 0001:00000e60       ?SetDirectories@CAcqConfigDlg@@IAEXXZ 67d81e60 f   AcqConfigDlg.obj
 0001:00001220       ?DoDataExchange@CAcqConfigDlg@@MAEXPAVCDataExchange@@@Z 67d82220 f   AcqConfigDlg.obj
 0001:000012f0       ?GetMessageMap@CAcqConfigDlg@@MBEPBUAFX_MSGMAP@@XZ 67d822f0 f   AcqConfigDlg.obj
 0001:00001320       ?GetThisMessageMap@CAcqConfigDlg@@KGPBUAFX_MSGMAP@@XZ 67d82320 f   AcqConfigDlg.obj
 0001:00001330       ?OnInitDialog@CAcqConfigDlg@@MAEHXZ 67d82330 f   AcqConfigDlg.obj
 0001:00001390       ?InitServerCombo@CAcqConfigDlg@@IAEXXZ 67d82390 f   AcqConfigDlg.obj
 0001:00001620       ?InitResourceCombo@CAcqConfigDlg@@IAEXXZ 67d82620 f   AcqConfigDlg.obj
 0001:00001890       ?OnConfigBrowse@CAcqConfigDlg@@IAEXXZ 67d82890 f   AcqConfigDlg.obj
 0001:000019a0       ?OnKillfocusEditConfigPath@CAcqConfigDlg@@IAEXXZ 67d829a0 f   AcqConfigDlg.obj
 0001:00001a50       ?UpdateCurrentDir@CAcqConfigDlg@@IAEXPAD@Z 67d82a50 f   AcqConfigDlg.obj
 0001:00001b10       ?UpdateNames@CAcqConfigDlg@@IAEXXZ 67d82b10 f   AcqConfigDlg.obj
 0001:000023d0       ?UpdateBoxAvailability@CAcqConfigDlg@@IAEXXZ 67d833d0 f   AcqConfigDlg.obj
 0001:00002520       ?OnSelchangeComboConfig@CAcqConfigDlg@@IAEXXZ 67d83520 f   AcqConfigDlg.obj
 0001:000025b0       ?OnOK@CAcqConfigDlg@@MAEXXZ 67d835b0 f   AcqConfigDlg.obj
 0001:000026d0       ?OnSelchangeComboServer@CAcqConfigDlg@@IAEXXZ 67d836d0 f   AcqConfigDlg.obj
 0001:00002710       ?OnSelchangeComboResource@CAcqConfigDlg@@IAEXXZ 67d83710 f   AcqConfigDlg.obj
 0001:00002740       ?OnBnClickedConfigFileCheck@CAcqConfigDlg@@IAEXXZ 67d83740 f   AcqConfigDlg.obj
 0001:000029e0       ?strstr@@YAPADPADPBD@Z     67d839e0 f i AcqConfigDlg.obj
 0001:00002a10       ?GetDir@CBrowseDirDlg@@QAE?AV?$CStringT@DV?$StrTraitMFC_DLL@DV?$ChTraitsCRT@D@ATL@@@@@ATL@@XZ 67d83a10 f i AcqConfigDlg.obj
 0001:00002a70       ??1CBrowseDirDlg@@QAE@XZ   67d83a70 f i AcqConfigDlg.obj
 0001:00002aa0       ?strrchr@@YAPADPADH@Z      67d83aa0 f i AcqConfigDlg.obj
 0001:00002ad0       ??_ECAcqConfigDlg@@WHE@AEPAXI@Z 67d83ad0 f i AcqConfigDlg.obj
 0001:00002ae0       ?StringCbCopyA@@YGJPADIPBD@Z 67d83ae0 f i AcqConfigDlg.obj
 0001:00002b50       ?StringCbCatA@@YGJPADIPBD@Z 67d83b50 f i AcqConfigDlg.obj
 0001:00002c00       ?StringCbPrintfA@@YAJPADIPBDZZ 67d83c00 f i AcqConfigDlg.obj
 0001:00002c80       ??_GCAcqConfigDlg@@UAEPAXI@Z 67d83c80 f i AcqConfigDlg.obj
 0001:00002cc0       ??1CAcqConfigDlg@@UAE@XZ   67d83cc0 f i AcqConfigDlg.obj
 0001:00002dd0       ??_ECAcqConfigDlg@@UAEPAXI@Z 67d83dd0 f i AcqConfigDlg.obj
 0001:00002e50       ??0CAcqDlg@@QAE@PAVCWnd@@PAVSapAcquisition@@@Z 67d83e50 f   AcqDlg.obj
 0001:00002f00       ?DoDataExchange@CAcqDlg@@MAEXPAVCDataExchange@@@Z 67d83f00 f   AcqDlg.obj
 0001:00002f60       ?GetMessageMap@CAcqDlg@@MBEPBUAFX_MSGMAP@@XZ 67d83f60 f   AcqDlg.obj
 0001:00002f90       ?GetThisMessageMap@CAcqDlg@@KGPBUAFX_MSGMAP@@XZ 67d83f90 f   AcqDlg.obj
 0001:00002fa0       ?OnOK@CAcqDlg@@MAEXXZ      67d83fa0 f   AcqDlg.obj
 0001:00003210       ?OnInitDialog@CAcqDlg@@MAEHXZ 67d84210 f   AcqDlg.obj
 0001:00003aa0       ?UpdateWindow@CAcqDlg@@IAEXXZ 67d84aa0 f   AcqDlg.obj
 0001:00003bd0       ?OnExternalTriggerEnable@CAcqDlg@@IAEXXZ 67d84bd0 f   AcqDlg.obj
 0001:00003dc0       ??_ECAcqDlg@@WHE@AEPAXI@Z  67d84dc0 f i AcqDlg.obj
 0001:00003dd0       ??_GCAcqDlg@@UAEPAXI@Z     67d84dd0 f i AcqDlg.obj
 0001:00003e10       ??1CAcqDlg@@UAE@XZ         67d84e10 f i AcqDlg.obj
 0001:00003e90       ??_ECAcqDlg@@UAEPAXI@Z     67d84e90 f i AcqDlg.obj
 0001:00003f10       ??0CAScanDlg@@QAE@PAVCWnd@@PAVSapAcquisition@@@Z 67d84f10 f   AScanDlg.obj
 0001:00003ff0       ?DoDataExchange@CAScanDlg@@MAEXPAVCDataExchange@@@Z 67d84ff0 f   AScanDlg.obj
 0001:00004080       ?GetMessageMap@CAScanDlg@@MBEPBUAFX_MSGMAP@@XZ 67d85080 f   AScanDlg.obj
 0001:000040b0       ?GetThisMessageMap@CAScanDlg@@KGPBUAFX_MSGMAP@@XZ 67d850b0 f   AScanDlg.obj
 0001:000040c0       ?OnOK@CAScanDlg@@MAEXXZ    67d850c0 f   AScanDlg.obj
 0001:00004540       ?OnInitDialog@CAScanDlg@@MAEHXZ 67d85540 f   AScanDlg.obj
 0001:00004f20       ?UpdateWindow@CAScanDlg@@IAEXXZ 67d85f20 f   AScanDlg.obj
 0001:00005070       ?OnCamTriggerEnable@CAScanDlg@@IAEXXZ 67d86070 f   AScanDlg.obj
 0001:000050a0       ?OnCamResetEnable@CAScanDlg@@IAEXXZ 67d860a0 f   AScanDlg.obj
 0001:000050d0       ?OnTimeIntegrate@CAScanDlg@@IAEXXZ 67d860d0 f   AScanDlg.obj
 0001:00005100       ?OnKillfocusEditTime@CAScanDlg@@IAEXXZ 67d86100 f   AScanDlg.obj
 0001:00005140       ?OnFrameIntegrate@CAScanDlg@@IAEXXZ 67d86140 f   AScanDlg.obj
 0001:00005170       ?OnKillfocusEditFrame@CAScanDlg@@IAEXXZ 67d86170 f   AScanDlg.obj
 0001:000051b0       ?OnVScroll@CAScanDlg@@IAEXIIPAVCScrollBar@@@Z 67d861b0 f   AScanDlg.obj
 0001:000052e0       ?VerifyTimeIntegrateDuration@CAScanDlg@@IAEXH@Z 67d862e0 f   AScanDlg.obj
 0001:00005450       ?VerifyFrameIntegrateCount@CAScanDlg@@IAEXXZ 67d86450 f   AScanDlg.obj
 0001:00005710       ??_ECAScanDlg@@WHE@AEPAXI@Z 67d86710 f i AScanDlg.obj
 0001:00005720       ??_GCAScanDlg@@UAEPAXI@Z   67d86720 f i AScanDlg.obj
 0001:00005760       ??1CAScanDlg@@UAE@XZ       67d86760 f i AScanDlg.obj
 0001:00005800       ??_ECAScanDlg@@UAEPAXI@Z   67d86800 f i AScanDlg.obj
 0001:00005880       ??0CAviFileDlg@@QAE@PAVCWnd@@HHHH@Z 67d86880 f   AviFileDlg.obj
 0001:00005980       ?DoDataExchange@CAviFileDlg@@MAEXPAVCDataExchange@@@Z 67d86980 f   AviFileDlg.obj
 0001:00005a00       ?GetMessageMap@CAviFileDlg@@MBEPBUAFX_MSGMAP@@XZ 67d86a00 f   AviFileDlg.obj
 0001:00005a30       ?GetThisMessageMap@CAviFileDlg@@KGPBUAFX_MSGMAP@@XZ 67d86a30 f   AviFileDlg.obj
 0001:00005a40       ?OnVScroll@CAviFileDlg@@IAEXIIPAVCScrollBar@@@Z 67d86a40 f   AviFileDlg.obj
 0001:00005b40       ?OnUpdateAviEditFirstFrame@CAviFileDlg@@IAEXXZ 67d86b40 f   AviFileDlg.obj
 0001:00005b70       ?OnUpdateAviEditCompressionLevel@CAviFileDlg@@IAEXXZ 67d86b70 f   AviFileDlg.obj
 0001:00005ba0       ?OnInitDialog@CAviFileDlg@@MAEHXZ 67d86ba0 f   AviFileDlg.obj
 0001:00005c80       ?OnOK@CAviFileDlg@@MAEXXZ  67d86c80 f   AviFileDlg.obj
 0001:00005d10       ??_ECAviFileDlg@@UAEPAXI@Z 67d86d10 f i AviFileDlg.obj
 0001:00005d10       ??_GCAviFileDlg@@UAEPAXI@Z 67d86d10 f i AviFileDlg.obj
 0001:00005d50       ??1CAviFileDlg@@UAE@XZ     67d86d50 f i AviFileDlg.obj
 0001:00005d80       ??0CBayerOptionsDlg@@QAE@PAVCWnd@@PAVSapBayer@@PAVSapTransfer@@PAVCImageWnd@@PAVSapProcessing@@@Z 67d86d80 f   BayerDlg.obj
 0001:00005e80       ??1CBayerOptionsDlg@@UAE@XZ 67d86e80 f   BayerDlg.obj
 0001:00005f10       ?DoDataExchange@CBayerOptionsDlg@@MAEXPAVCDataExchange@@@Z 67d86f10 f   BayerDlg.obj
 0001:00005fe0       ?GetMessageMap@CBayerOptionsDlg@@MBEPBUAFX_MSGMAP@@XZ 67d86fe0 f   BayerDlg.obj
 0001:00006010       ?GetThisMessageMap@CBayerOptionsDlg@@KGPBUAFX_MSGMAP@@XZ 67d87010 f   BayerDlg.obj
 0001:00006020       ?OnInitDialog@CBayerOptionsDlg@@MAEHXZ 67d87020 f   BayerDlg.obj
 0001:00006080       ?UpdateInterface@CBayerOptionsDlg@@QAEXXZ 67d87080 f   BayerDlg.obj
 0001:00006480       ?OnChange@CBayerOptionsDlg@@IAEXXZ 67d87480 f   BayerDlg.obj
 0001:000064c0       ?OnGammaEnable@CBayerOptionsDlg@@IAEXXZ 67d874c0 f   BayerDlg.obj
 0001:00006560       ?OnChangeRange@CBayerOptionsDlg@@IAEXI@Z 67d87560 f   BayerDlg.obj
 0001:00006590       ?OnAutoWhiteBalance@CBayerOptionsDlg@@IAEXXZ 67d87590 f   BayerDlg.obj
 0001:000066f0       ?OnApply@CBayerOptionsDlg@@IAEXXZ 67d876f0 f   BayerDlg.obj
 0001:00006960       ?OnShowWindow@CBayerOptionsDlg@@IAEXHI@Z 67d87960 f   BayerDlg.obj
 0001:000069d0       ?UpdateView@CBayerOptionsDlg@@IAEXXZ 67d879d0 f   BayerDlg.obj
 0001:00006b30       ?OnClose@CBayerOptionsDlg@@IAEXXZ 67d87b30 f   BayerDlg.obj
 0001:00006b90       ??_ECBayerOptionsDlg@@WHE@AEPAXI@Z 67d87b90 f i BayerDlg.obj
 0001:00006ba0       ?IsRoiTrackerActive@CImageWnd@@QAEHXZ 67d87ba0 f i BayerDlg.obj
 0001:00006bc0       ??_GCBayerOptionsDlg@@UAEPAXI@Z 67d87bc0 f i BayerDlg.obj
 0001:00006c00       ??_ECBayerOptionsDlg@@UAEPAXI@Z 67d87c00 f i BayerDlg.obj
 0001:00006c80       ??0CBrowseDirDlg@@QAE@PBD@Z 67d87c80 f   BrowseDirDlg.obj
 0001:00006d10       ?DoModal@CBrowseDirDlg@@QAEHXZ 67d87d10 f   BrowseDirDlg.obj
 0001:00007170       ?BrowseHookProc@CBrowseDirDlg@@KGIPAUHWND__@@IIJ@Z 67d88170 f   BrowseDirDlg.obj
 0001:00007370       ??HATL@@YA?AV?$CStringT@DV?$StrTraitMFC_DLL@DV?$ChTraitsCRT@D@ATL@@@@@0@ABV10@0@Z 67d88370 f i BrowseDirDlg.obj
 0001:000074d0       ??HATL@@YA?AV?$CStringT@DV?$StrTraitMFC_DLL@DV?$ChTraitsCRT@D@ATL@@@@@0@ABV10@D@Z 67d884d0 f i BrowseDirDlg.obj
 0001:00007630       ??0CBufDlg@@QAE@PAVCWnd@@PAVSapBuffer@@PAVSapDisplay@@@Z 67d88630 f   BufDlg.obj
 0001:00007980       ?UpdateBuffer@CBufDlg@@IAEHXZ 67d88980 f   BufDlg.obj
 0001:00007b10       ?DoDataExchange@CBufDlg@@MAEXPAVCDataExchange@@@Z 67d88b10 f   BufDlg.obj
 0001:00007bd0       ?GetMessageMap@CBufDlg@@MBEPBUAFX_MSGMAP@@XZ 67d88bd0 f   BufDlg.obj
 0001:00007c00       ?GetThisMessageMap@CBufDlg@@KGPBUAFX_MSGMAP@@XZ 67d88c00 f   BufDlg.obj
 0001:00007c10       ?OnInitDialog@CBufDlg@@MAEHXZ 67d88c10 f   BufDlg.obj
 0001:00007d80       ?OnSelchangeComboFormat@CBufDlg@@IAEXXZ 67d88d80 f   BufDlg.obj
 0001:00007e20       ?OnContiguous@CBufDlg@@IAEXXZ 67d88e20 f   BufDlg.obj
 0001:00007e40       ?OnScatterGather@CBufDlg@@IAEXXZ 67d88e40 f   BufDlg.obj
 0001:00007e70       ?OnOffscreenVideo@CBufDlg@@IAEXXZ 67d88e70 f   BufDlg.obj
 0001:00007e90       ?OnOverlay@CBufDlg@@IAEXXZ 67d88e90 f   BufDlg.obj
 0001:00007eb0       ?OnBufferVirtual@CBufDlg@@IAEXXZ 67d88eb0 f   BufDlg.obj
 0001:00007ed0       ?OnOK@CBufDlg@@MAEXXZ      67d88ed0 f   BufDlg.obj
 0001:00007f10       ?EnableControls@CBufDlg@@IAEXXZ 67d88f10 f   BufDlg.obj
 0001:00008100       ??_GCBufDlg@@UAEPAXI@Z     67d89100 f i BufDlg.obj
 0001:00008140       ??1CBufDlg@@UAE@XZ         67d89140 f i BufDlg.obj
 0001:000081f0       ??_ECBufDlg@@UAEPAXI@Z     67d891f0 f i BufDlg.obj
 0001:00008270       ??0CCabDlg@@QAE@PAVCWnd@@PAVSapCab@@PAVSapXferNode@@H@Z 67d89270 f   CabDlg.obj
 0001:000084e0       ??1CCabDlg@@UAE@XZ         67d894e0 f   CabDlg.obj
 0001:000085e0       ?DoDataExchange@CCabDlg@@MAEXPAVCDataExchange@@@Z 67d895e0 f   CabDlg.obj
 0001:00008680       ?GetMessageMap@CCabDlg@@MBEPBUAFX_MSGMAP@@XZ 67d89680 f   CabDlg.obj
 0001:000086b0       ?GetThisMessageMap@CCabDlg@@KGPBUAFX_MSGMAP@@XZ 67d896b0 f   CabDlg.obj
 0001:000086c0       ?EnableControls@CCabDlg@@QAEXXZ 67d896c0 f   CabDlg.obj
 0001:00008b50       ?OnInitDialog@CCabDlg@@MAEHXZ 67d89b50 f   CabDlg.obj
 0001:00009250       ?OnOK@CCabDlg@@MAEXXZ      67d8a250 f   CabDlg.obj
 0001:000095d0       ?OnCabTransmitter@CCabDlg@@IAEXXZ 67d8a5d0 f   CabDlg.obj
 0001:00009610       ?OnCabReceiver@CCabDlg@@IAEXXZ 67d8a610 f   CabDlg.obj
 0001:00009650       ?OnSelchangeCabTransferMode@CCabDlg@@IAEXXZ 67d8a650 f   CabDlg.obj
 0001:00009680       ?OnSelchangeCabChannelTable@CCabDlg@@IAEXPAUtagNMHDR@@PAJ@Z 67d8a680 f   CabDlg.obj
 0001:000096e0       ?OnCabChannel0@CCabDlg@@IAEXXZ 67d8a6e0 f   CabDlg.obj
 0001:00009710       ?OnCabChannel1@CCabDlg@@IAEXXZ 67d8a710 f   CabDlg.obj
 0001:00009740       ?OnCabChannel2@CCabDlg@@IAEXXZ 67d8a740 f   CabDlg.obj
 0001:00009770       ?OnCabChannel3@CCabDlg@@IAEXXZ 67d8a770 f   CabDlg.obj
 0001:000097a0       ?OnCabChannel4@CCabDlg@@IAEXXZ 67d8a7a0 f   CabDlg.obj
 0001:000097d0       ?OnCabChannel5@CCabDlg@@IAEXXZ 67d8a7d0 f   CabDlg.obj
 0001:00009800       ?OnCabChannel6@CCabDlg@@IAEXXZ 67d8a800 f   CabDlg.obj
 0001:00009830       ?OnCabChannel7@CCabDlg@@IAEXXZ 67d8a830 f   CabDlg.obj
 0001:00009860       ?OnCabChannel8@CCabDlg@@IAEXXZ 67d8a860 f   CabDlg.obj
 0001:00009890       ?OnCabChannel9@CCabDlg@@IAEXXZ 67d8a890 f   CabDlg.obj
 0001:000098c0       ?OnCabChannel10@CCabDlg@@IAEXXZ 67d8a8c0 f   CabDlg.obj
 0001:000098f0       ?OnCabChannel11@CCabDlg@@IAEXXZ 67d8a8f0 f   CabDlg.obj
 0001:00009920       ?OnCabChannel12@CCabDlg@@IAEXXZ 67d8a920 f   CabDlg.obj
 0001:00009950       ?OnCabChannel13@CCabDlg@@IAEXXZ 67d8a950 f   CabDlg.obj
 0001:00009980       ?OnCabChannel14@CCabDlg@@IAEXXZ 67d8a980 f   CabDlg.obj
 0001:000099b0       ?OnCabChannel15@CCabDlg@@IAEXXZ 67d8a9b0 f   CabDlg.obj
 0001:000099e0       ?ToggleCabChannel@CCabDlg@@IAEXH@Z 67d8a9e0 f   CabDlg.obj
 0001:00009a40       ?DestroyWindow@CCabDlg@@UAEHXZ 67d8aa40 f   CabDlg.obj
 0001:00009ab0       ??_ESapCab@@UAEPAXI@Z      67d8aab0 f i CabDlg.obj
 0001:00009ab0       ??_GSapCab@@UAEPAXI@Z      67d8aab0 f i CabDlg.obj
 0001:00009b00       ??_ECCabDlg@@WHE@AEPAXI@Z  67d8ab00 f i CabDlg.obj
 0001:00009b10       ??_GCCabDlg@@UAEPAXI@Z     67d8ab10 f i CabDlg.obj
 0001:00009b50       ??_ECCabDlg@@UAEPAXI@Z     67d8ab50 f i CabDlg.obj
 0001:00009bd0       ??0CCamVicDlg@@QAE@PAVCWnd@@PAVSapAcquisition@@PBD@Z 67d8abd0 f   CamVicDlg.obj
 0001:00009f10       ?UpdateAcquisition@CCamVicDlg@@IAEHXZ 67d8af10 f   CamVicDlg.obj
 0001:0000a080       ?LoadSettings@CCamVicDlg@@IAEXXZ 67d8b080 f   CamVicDlg.obj
 0001:0000a2c0       ?SaveSettings@CCamVicDlg@@IAEXXZ 67d8b2c0 f   CamVicDlg.obj
 0001:0000a380       ?SetDirectories@CCamVicDlg@@IAEXXZ 67d8b380 f   CamVicDlg.obj
 0001:0000a8f0       ?DoDataExchange@CCamVicDlg@@MAEXPAVCDataExchange@@@Z 67d8b8f0 f   CamVicDlg.obj
 0001:0000a9e0       ?GetMessageMap@CCamVicDlg@@MBEPBUAFX_MSGMAP@@XZ 67d8b9e0 f   CamVicDlg.obj
 0001:0000aa10       ?GetThisMessageMap@CCamVicDlg@@KGPBUAFX_MSGMAP@@XZ 67d8ba10 f   CamVicDlg.obj
 0001:0000aa20       ?OnInitDialog@CCamVicDlg@@MAEHXZ 67d8ba20 f   CamVicDlg.obj
 0001:0000aaa0       ?InitServerCombo@CCamVicDlg@@IAEXXZ 67d8baa0 f   CamVicDlg.obj
 0001:0000ac30       ?InitResourceCombo@CCamVicDlg@@IAEXXZ 67d8bc30 f   CamVicDlg.obj
 0001:0000ad90       ?OnCamBrowse@CCamVicDlg@@IAEXXZ 67d8bd90 f   CamVicDlg.obj
 0001:0000aeb0       ?OnVicBrowse@CCamVicDlg@@IAEXXZ 67d8beb0 f   CamVicDlg.obj
 0001:0000afd0       ?OnKillfocusEditCamPath@CCamVicDlg@@IAEXXZ 67d8bfd0 f   CamVicDlg.obj
 0001:0000b080       ?OnKillfocusEditVicPath@CCamVicDlg@@IAEXXZ 67d8c080 f   CamVicDlg.obj
 0001:0000b130       ?UpdateCurrentDir@CCamVicDlg@@IAEXPADH@Z 67d8c130 f   CamVicDlg.obj
 0001:0000b240       ?UpdateNames@CCamVicDlg@@IAEXH@Z 67d8c240 f   CamVicDlg.obj
 0001:0000b8c0       ?UpdateBoxAvailability@CCamVicDlg@@IAEXXZ 67d8c8c0 f   CamVicDlg.obj
 0001:0000b980       ?OnSelchangeComboCamera@CCamVicDlg@@IAEXXZ 67d8c980 f   CamVicDlg.obj
 0001:0000ba10       ?OnSelchangeComboVic@CCamVicDlg@@IAEXXZ 67d8ca10 f   CamVicDlg.obj
 0001:0000baa0       ?MakeVicAvailable@CCamVicDlg@@IAEHXZ 67d8caa0 f   CamVicDlg.obj
 0001:0000bbc0       ?OnGenerateVic@CCamVicDlg@@IAEXXZ 67d8cbc0 f   CamVicDlg.obj
 0001:0000c300       ?OnOK@CCamVicDlg@@MAEXXZ   67d8d300 f   CamVicDlg.obj
 0001:0000c3a0       ?OnSelchangeComboServer@CCamVicDlg@@IAEXXZ 67d8d3a0 f   CamVicDlg.obj
 0001:0000c3e0       ?OnSelchangeComboResource@CCamVicDlg@@IAEXXZ 67d8d3e0 f   CamVicDlg.obj
 0001:0000c680       ??HATL@@YA?AV?$CStringT@DV?$StrTraitMFC_DLL@DV?$ChTraitsCRT@D@ATL@@@@@0@ABV10@PBD@Z 67d8d680 f i CamVicDlg.obj
 0001:0000c7d0       ??_ECCamVicDlg@@WHE@AEPAXI@Z 67d8d7d0 f i CamVicDlg.obj
 0001:0000c7e0       ??_GCCamVicDlg@@UAEPAXI@Z  67d8d7e0 f i CamVicDlg.obj
 0001:0000c820       ??1CCamVicDlg@@UAE@XZ      67d8d820 f i CamVicDlg.obj
 0001:0000c950       ??_ECCamVicDlg@@UAEPAXI@Z  67d8d950 f i CamVicDlg.obj
 0001:0000c9d0       ??0CCompDlg@@QAE@PAVCWnd@@PAVSapAcquisition@@PAVSapTransfer@@@Z 67d8d9d0 f   CompDlg.obj
 0001:0000cb20       ?DoDataExchange@CCompDlg@@MAEXPAVCDataExchange@@@Z 67d8db20 f   CompDlg.obj
 0001:0000cc40       ?GetMessageMap@CCompDlg@@MBEPBUAFX_MSGMAP@@XZ 67d8dc40 f   CompDlg.obj
 0001:0000cc70       ?GetThisMessageMap@CCompDlg@@KGPBUAFX_MSGMAP@@XZ 67d8dc70 f   CompDlg.obj
 0001:0000cc80       ?Snap@CCompDlg@@IAEXXZ     67d8dc80 f   CompDlg.obj
 0001:0000cdf0       ?OnOK@CCompDlg@@MAEXXZ     67d8ddf0 f   CompDlg.obj
 0001:0000ce20       ?OnCancel@CCompDlg@@MAEXXZ 67d8de20 f   CompDlg.obj
 0001:0000cfb0       ?OnInitDialog@CCompDlg@@MAEHXZ 67d8dfb0 f   CompDlg.obj
 0001:0000e070       ?UpdateWindow@CCompDlg@@IAEXXZ 67d8f070 f   CompDlg.obj
 0001:0000e200       ?SetBrightness@CCompDlg@@IAEXXZ 67d8f200 f   CompDlg.obj
 0001:0000e2f0       ?SetContrast@CCompDlg@@IAEXXZ 67d8f2f0 f   CompDlg.obj
 0001:0000e3e0       ?SetHue@CCompDlg@@IAEXXZ   67d8f3e0 f   CompDlg.obj
 0001:0000e4a0       ?SetSaturation@CCompDlg@@IAEXXZ 67d8f4a0 f   CompDlg.obj
 0001:0000e560       ?SetSharpness@CCompDlg@@IAEXXZ 67d8f560 f   CompDlg.obj
 0001:0000e620       ?OnHScroll@CCompDlg@@IAEXIIPAVCScrollBar@@@Z 67d8f620 f   CompDlg.obj
 0001:0000ea10       ?OnRed@CCompDlg@@IAEXXZ    67d8fa10 f   CompDlg.obj
 0001:0000ea80       ?OnGreen@CCompDlg@@IAEXXZ  67d8fa80 f   CompDlg.obj
 0001:0000eaf0       ?OnBlue@CCompDlg@@IAEXXZ   67d8faf0 f   CompDlg.obj
 0001:0000eb60       ?OnKillfocusEditContrast@CCompDlg@@IAEXXZ 67d8fb60 f   CompDlg.obj
 0001:0000ebb0       ?OnKillfocusEditBrightness@CCompDlg@@IAEXXZ 67d8fbb0 f   CompDlg.obj
 0001:0000ec00       ?OnKillfocusEditHue@CCompDlg@@IAEXXZ 67d8fc00 f   CompDlg.obj
 0001:0000ec50       ?OnKillfocusEditSaturation@CCompDlg@@IAEXXZ 67d8fc50 f   CompDlg.obj
 0001:0000eca0       ?OnKillfocusEditSharpness@CCompDlg@@IAEXXZ 67d8fca0 f   CompDlg.obj
 0001:0000ecf0       ?OnDefault@CCompDlg@@IAEXXZ 67d8fcf0 f   CompDlg.obj
 0001:0000ee80       ??_ECCompDlg@@WHE@AEPAXI@Z 67d8fe80 f i CompDlg.obj
 0001:0000ee90       ??_GCCompDlg@@UAEPAXI@Z    67d8fe90 f i CompDlg.obj
 0001:0000eed0       ??1CCompDlg@@UAE@XZ        67d8fed0 f i CompDlg.obj
 0001:0000efa0       ??_ECCompDlg@@UAEPAXI@Z    67d8ffa0 f i CompDlg.obj
 0001:0000f020       ??0CFlatFieldDlg@@QAE@PAVCWnd@@PAVSapFlatField@@PAVSapTransfer@@PAVSapBuffer@@@Z 67d90020 f   FlatFieldDlg.obj
 0001:0000f210       ??1CFlatFieldDlg@@UAE@XZ   67d90210 f   FlatFieldDlg.obj
 0001:0000f330       ?DoDataExchange@CFlatFieldDlg@@MAEXPAVCDataExchange@@@Z 67d90330 f   FlatFieldDlg.obj
 0001:0000f540       ?GetMessageMap@CFlatFieldDlg@@MBEPBUAFX_MSGMAP@@XZ 67d90540 f   FlatFieldDlg.obj
 0001:0000f570       ?GetThisMessageMap@CFlatFieldDlg@@KGPBUAFX_MSGMAP@@XZ 67d90570 f   FlatFieldDlg.obj
 0001:0000f580       ?OnInitDialog@CFlatFieldDlg@@MAEHXZ 67d90580 f   FlatFieldDlg.obj
 0001:00010550       ?OnDestroy@CFlatFieldDlg@@IAEXXZ 67d91550 f   FlatFieldDlg.obj
 0001:00010580       ?OnDarkImage@CFlatFieldDlg@@IAEXXZ 67d91580 f   FlatFieldDlg.obj
 0001:00010eb0       ?DarkImage@CFlatFieldDlg@@AAEXXZ 67d91eb0 f   FlatFieldDlg.obj
 0001:00011700       ?OnBrightImage@CFlatFieldDlg@@IAEXXZ 67d92700 f   FlatFieldDlg.obj
 0001:00011f70       ?BrightImage@CFlatFieldDlg@@AAEXXZ 67d92f70 f   FlatFieldDlg.obj
 0001:00012d20       ?OnOK@CFlatFieldDlg@@MAEXXZ 67d93d20 f   FlatFieldDlg.obj
 0001:00012dd0       ?OnCancel@CFlatFieldDlg@@MAEXXZ 67d93dd0 f   FlatFieldDlg.obj
 0001:00012eb0       ?OnSelchangeCorrectionType@CFlatFieldDlg@@IAEXXZ 67d93eb0 f   FlatFieldDlg.obj
 0001:00012f60       ?OnSelchangeVideoType@CFlatFieldDlg@@IAEXXZ 67d93f60 f   FlatFieldDlg.obj
 0001:00012fd0       ?OnSelchangeCalibrationIndex@CFlatFieldDlg@@IAEXXZ 67d93fd0 f   FlatFieldDlg.obj
 0001:00013030       ?Snap@CFlatFieldDlg@@QAEHXZ 67d94030 f   FlatFieldDlg.obj
 0001:00013260       ?LogMessage@CFlatFieldDlg@@AAEXHV?$CStringT@DV?$StrTraitMFC_DLL@DV?$ChTraitsCRT@D@ATL@@@@@ATL@@@Z 67d94260 f   FlatFieldDlg.obj
 0001:00013470       ?GetAverageStr@CFlatFieldDlg@@ABE?AV?$CStringT@DV?$StrTraitMFC_DLL@DV?$ChTraitsCRT@D@ATL@@@@@ATL@@AAVSapFlatFieldStats@@@Z 67d94470 f   FlatFieldDlg.obj
 0001:000136d0       ?GetStdDeviationStr@CFlatFieldDlg@@ABE?AV?$CStringT@DV?$StrTraitMFC_DLL@DV?$ChTraitsCRT@D@ATL@@@@@ATL@@AAVSapFlatFieldStats@@@Z 67d946d0 f   FlatFieldDlg.obj
 0001:00013930       ?GetLowStr@CFlatFieldDlg@@ABE?AV?$CStringT@DV?$StrTraitMFC_DLL@DV?$ChTraitsCRT@D@ATL@@@@@ATL@@AAVSapFlatFieldStats@@@Z 67d94930 f   FlatFieldDlg.obj
 0001:00013b90       ?GetHighStr@CFlatFieldDlg@@ABE?AV?$CStringT@DV?$StrTraitMFC_DLL@DV?$ChTraitsCRT@D@ATL@@@@@ATL@@AAVSapFlatFieldStats@@@Z 67d94b90 f   FlatFieldDlg.obj
 0001:00013df0       ?GetPeakPositionStr@CFlatFieldDlg@@ABE?AV?$CStringT@DV?$StrTraitMFC_DLL@DV?$ChTraitsCRT@D@ATL@@@@@ATL@@AAVSapFlatFieldStats@@@Z 67d94df0 f   FlatFieldDlg.obj
 0001:00014050       ?GetPixelRatioStr@CFlatFieldDlg@@ABE?AV?$CStringT@DV?$StrTraitMFC_DLL@DV?$ChTraitsCRT@D@ATL@@@@@ATL@@AAVSapFlatFieldStats@@@Z 67d95050 f   FlatFieldDlg.obj
 0001:000142b0       ?GetNumPixelsStr@CFlatFieldDlg@@ABE?AV?$CStringT@DV?$StrTraitMFC_DLL@DV?$ChTraitsCRT@D@ATL@@@@@ATL@@AAVSapFlatFieldStats@@@Z 67d952b0 f   FlatFieldDlg.obj
 0001:00014510       ?OnSaveAndUpload@CFlatFieldDlg@@IAEXXZ 67d95510 f   FlatFieldDlg.obj
 0001:00014880       ?pow@@YANNH@Z              67d95880 f i FlatFieldDlg.obj
 0001:000148b0       ??_ESapBuffer@@UAEPAXI@Z   67d958b0 f i FlatFieldDlg.obj
 0001:000148b0       ??_GSapBuffer@@UAEPAXI@Z   67d958b0 f i FlatFieldDlg.obj
 0001:00014900       ??$_Pow_int@N@@YANNH@Z     67d95900 f i FlatFieldDlg.obj
 0001:00014980       ??_ECFlatFieldDlg@@WHE@AEPAXI@Z 67d95980 f i FlatFieldDlg.obj
 0001:00014990       ?GetPathName@CLoadSaveDlg@@QAE?AV?$CStringT@DV?$StrTraitMFC_DLL@DV?$ChTraitsCRT@D@ATL@@@@@ATL@@XZ 67d95990 f i FlatFieldDlg.obj
 0001:000149f0       ??1CLoadSaveDlg@@UAE@XZ    67d959f0 f i FlatFieldDlg.obj
 0001:00014a30       ??_GCFlatFieldDlg@@UAEPAXI@Z 67d95a30 f i FlatFieldDlg.obj
 0001:00014a70       ??_ECFlatFieldDlg@@UAEPAXI@Z 67d95a70 f i FlatFieldDlg.obj
 0001:00014af0       ??0CGioBidirectionalDlg@@QAE@PAVCWnd@@IPAVSapGio@@@Z 67d95af0 f   GioBidirectionalDlg.obj
 0001:00014c20       ?DoDataExchange@CGioBidirectionalDlg@@MAEXPAVCDataExchange@@@Z 67d95c20 f   GioBidirectionalDlg.obj
 0001:00014c90       ?MoveWindow@CGioBidirectionalDlg@@QAEII@Z 67d95c90 f   GioBidirectionalDlg.obj
 0001:00014d40       ?GetMessageMap@CGioBidirectionalDlg@@MBEPBUAFX_MSGMAP@@XZ 67d95d40 f   GioBidirectionalDlg.obj
 0001:00014d70       ?GetThisMessageMap@CGioBidirectionalDlg@@KGPBUAFX_MSGMAP@@XZ 67d95d70 f   GioBidirectionalDlg.obj
 0001:00014d80       ?PreTranslateMessage@CGioBidirectionalDlg@@UAEHPAUtagMSG@@@Z 67d95d80 f   GioBidirectionalDlg.obj
 0001:00014dd0       ?GioCallbackInfo@CGioBidirectionalDlg@@SAXPAVSapGioCallbackInfo@@@Z 67d95dd0 f   GioBidirectionalDlg.obj
 0001:00014f00       ?Create@CGioBidirectionalDlg@@QAEHXZ 67d95f00 f   GioBidirectionalDlg.obj
 0001:00014f50       ?OnInitDialog@CGioBidirectionalDlg@@MAEHXZ 67d95f50 f   GioBidirectionalDlg.obj
 0001:00015a30       ?OnSelchangeComboSignalEvent@CGioBidirectionalDlg@@IAEXXZ 67d96a30 f   GioBidirectionalDlg.obj
 0001:00015a80       ?ChangePinDirection@CGioBidirectionalDlg@@IAEXIH@Z 67d96a80 f   GioBidirectionalDlg.obj
 0001:00015bb0       ?OnSelchangeComboDir1@CGioBidirectionalDlg@@IAEXXZ 67d96bb0 f   GioBidirectionalDlg.obj
 0001:00015bf0       ?OnSelchangeComboDir2@CGioBidirectionalDlg@@IAEXXZ 67d96bf0 f   GioBidirectionalDlg.obj
 0001:00015c30       ?OnSelchangeComboDir3@CGioBidirectionalDlg@@IAEXXZ 67d96c30 f   GioBidirectionalDlg.obj
 0001:00015c70       ?OnSelchangeComboDir4@CGioBidirectionalDlg@@IAEXXZ 67d96c70 f   GioBidirectionalDlg.obj
 0001:00015cb0       ?OnSelchangeComboDir5@CGioBidirectionalDlg@@IAEXXZ 67d96cb0 f   GioBidirectionalDlg.obj
 0001:00015cf0       ?OnSelchangeComboDir6@CGioBidirectionalDlg@@IAEXXZ 67d96cf0 f   GioBidirectionalDlg.obj
 0001:00015d30       ?OnSelchangeComboDir7@CGioBidirectionalDlg@@IAEXXZ 67d96d30 f   GioBidirectionalDlg.obj
 0001:00015d70       ?OnSelchangeComboDir8@CGioBidirectionalDlg@@IAEXXZ 67d96d70 f   GioBidirectionalDlg.obj
 0001:00015db0       ?OnSelchangeComboDir9@CGioBidirectionalDlg@@IAEXXZ 67d96db0 f   GioBidirectionalDlg.obj
 0001:00015df0       ?OnSelchangeComboDir10@CGioBidirectionalDlg@@IAEXXZ 67d96df0 f   GioBidirectionalDlg.obj
 0001:00015e30       ?OnSelchangeComboDir11@CGioBidirectionalDlg@@IAEXXZ 67d96e30 f   GioBidirectionalDlg.obj
 0001:00015e70       ?OnSelchangeComboDir12@CGioBidirectionalDlg@@IAEXXZ 67d96e70 f   GioBidirectionalDlg.obj
 0001:00015eb0       ?OnEnableCallback@CGioBidirectionalDlg@@IAEXXZ 67d96eb0 f   GioBidirectionalDlg.obj
 0001:00016080       ?Update@CGioBidirectionalDlg@@QAEHXZ 67d97080 f   GioBidirectionalDlg.obj
 0001:00016320       ?OnSelchangeComboInputLevel@CGioBidirectionalDlg@@IAEXXZ 67d97320 f   GioBidirectionalDlg.obj
 0001:000164b0       ?OnCtlColor@CGioBidirectionalDlg@@IAEPAUHBRUSH__@@PAVCDC@@PAVCWnd@@I@Z 67d974b0 f   GioBidirectionalDlg.obj
 0001:00016520       ?ResetInterruptCount@CGioBidirectionalDlg@@IAEHXZ 67d97520 f   GioBidirectionalDlg.obj
 0001:00016690       ?OnBtReset@CGioBidirectionalDlg@@IAEXXZ 67d97690 f   GioBidirectionalDlg.obj
 0001:000166c0       ?ChangePinState@CGioBidirectionalDlg@@IAEXH@Z 67d976c0 f   GioBidirectionalDlg.obj
 0001:000168b0       ?OnPin1@CGioBidirectionalDlg@@IAEXXZ 67d978b0 f   GioBidirectionalDlg.obj
 0001:000168e0       ?OnPin2@CGioBidirectionalDlg@@IAEXXZ 67d978e0 f   GioBidirectionalDlg.obj
 0001:00016910       ?OnPin3@CGioBidirectionalDlg@@IAEXXZ 67d97910 f   GioBidirectionalDlg.obj
 0001:00016940       ?OnPin4@CGioBidirectionalDlg@@IAEXXZ 67d97940 f   GioBidirectionalDlg.obj
 0001:00016970       ?OnPin5@CGioBidirectionalDlg@@IAEXXZ 67d97970 f   GioBidirectionalDlg.obj
 0001:000169a0       ?OnPin6@CGioBidirectionalDlg@@IAEXXZ 67d979a0 f   GioBidirectionalDlg.obj
 0001:000169d0       ?OnPin7@CGioBidirectionalDlg@@IAEXXZ 67d979d0 f   GioBidirectionalDlg.obj
 0001:00016a00       ?OnPin8@CGioBidirectionalDlg@@IAEXXZ 67d97a00 f   GioBidirectionalDlg.obj
 0001:00016a30       ?OnPin9@CGioBidirectionalDlg@@IAEXXZ 67d97a30 f   GioBidirectionalDlg.obj
 0001:00016a60       ?OnPin10@CGioBidirectionalDlg@@IAEXXZ 67d97a60 f   GioBidirectionalDlg.obj
 0001:00016a90       ?OnPin11@CGioBidirectionalDlg@@IAEXXZ 67d97a90 f   GioBidirectionalDlg.obj
 0001:00016ac0       ?OnPin12@CGioBidirectionalDlg@@IAEXXZ 67d97ac0 f   GioBidirectionalDlg.obj
 0001:00016c90       ??_GCGioBidirectionalDlg@@UAEPAXI@Z 67d97c90 f i GioBidirectionalDlg.obj
 0001:00016cd0       ??1CGioBidirectionalDlg@@UAE@XZ 67d97cd0 f i GioBidirectionalDlg.obj
 0001:00016d70       ??_ECGioBidirectionalDlg@@UAEPAXI@Z 67d97d70 f i GioBidirectionalDlg.obj
 0001:00016df0       ??0CGioInputDlg@@QAE@PAVCWnd@@IPAVSapGio@@@Z 67d97df0 f   GioInputDlg.obj
 0001:00016f20       ?DoDataExchange@CGioInputDlg@@MAEXPAVCDataExchange@@@Z 67d97f20 f   GioInputDlg.obj
 0001:00016f90       ?MoveWindow@CGioInputDlg@@QAEII@Z 67d97f90 f   GioInputDlg.obj
 0001:00017040       ?GetMessageMap@CGioInputDlg@@MBEPBUAFX_MSGMAP@@XZ 67d98040 f   GioInputDlg.obj
 0001:00017070       ?GetThisMessageMap@CGioInputDlg@@KGPBUAFX_MSGMAP@@XZ 67d98070 f   GioInputDlg.obj
 0001:00017080       ?PreTranslateMessage@CGioInputDlg@@UAEHPAUtagMSG@@@Z 67d98080 f   GioInputDlg.obj
 0001:000170d0       ?GioCallbackInfo@CGioInputDlg@@SAXPAVSapGioCallbackInfo@@@Z 67d980d0 f   GioInputDlg.obj
 0001:00017200       ?Create@CGioInputDlg@@QAEHXZ 67d98200 f   GioInputDlg.obj
 0001:00017250       ?OnInitDialog@CGioInputDlg@@MAEHXZ 67d98250 f   GioInputDlg.obj
 0001:00017bc0       ?OnSelchangeComboSignalEvent@CGioInputDlg@@IAEXXZ 67d98bc0 f   GioInputDlg.obj
 0001:00017c10       ?OnEnableCallback@CGioInputDlg@@IAEXXZ 67d98c10 f   GioInputDlg.obj
 0001:00017de0       ?Update@CGioInputDlg@@QAEHXZ 67d98de0 f   GioInputDlg.obj
 0001:00018080       ?OnSelchangeComboInputLevel@CGioInputDlg@@IAEXXZ 67d99080 f   GioInputDlg.obj
 0001:00018210       ?OnCtlColor@CGioInputDlg@@IAEPAUHBRUSH__@@PAVCDC@@PAVCWnd@@I@Z 67d99210 f   GioInputDlg.obj
 0001:00018280       ?ResetInterruptCount@CGioInputDlg@@IAEHXZ 67d99280 f   GioInputDlg.obj
 0001:000183f0       ?OnBtReset@CGioInputDlg@@IAEXXZ 67d993f0 f   GioInputDlg.obj
 0001:000185c0       ??_GCGioInputDlg@@UAEPAXI@Z 67d995c0 f i GioInputDlg.obj
 0001:00018600       ??1CGioInputDlg@@UAE@XZ    67d99600 f i GioInputDlg.obj
 0001:000186a0       ??_ECGioInputDlg@@UAEPAXI@Z 67d996a0 f i GioInputDlg.obj
 0001:00018720       ??0CGioOutputDlg@@QAE@PAVCWnd@@IPAVSapGio@@@Z 67d99720 f   GioOutputDlg.obj
 0001:00018870       ?DoDataExchange@CGioOutputDlg@@MAEXPAVCDataExchange@@@Z 67d99870 f   GioOutputDlg.obj
 0001:00018900       ?PreTranslateMessage@CGioOutputDlg@@UAEHPAUtagMSG@@@Z 67d99900 f   GioOutputDlg.obj
 0001:00018950       ?MoveWindow@CGioOutputDlg@@QAEII@Z 67d99950 f   GioOutputDlg.obj
 0001:00018a00       ?GetMessageMap@CGioOutputDlg@@MBEPBUAFX_MSGMAP@@XZ 67d99a00 f   GioOutputDlg.obj
 0001:00018a30       ?GetThisMessageMap@CGioOutputDlg@@KGPBUAFX_MSGMAP@@XZ 67d99a30 f   GioOutputDlg.obj
 0001:00018a40       ?Update@CGioOutputDlg@@QAEHXZ 67d99a40 f   GioOutputDlg.obj
 0001:00018c90       ?Create@CGioOutputDlg@@QAEHXZ 67d99c90 f   GioOutputDlg.obj
 0001:00018ce0       ?OnInitDialog@CGioOutputDlg@@MAEHXZ 67d99ce0 f   GioOutputDlg.obj
 0001:00019650       ?InitOutputDlg@CGioOutputDlg@@QAEHXZ 67d9a650 f   GioOutputDlg.obj
 0001:000197d0       ?InitComboOutputState@CGioOutputDlg@@QAEXXZ 67d9a7d0 f   GioOutputDlg.obj
 0001:00019c70       ?OnSelchangeComboOutputState@CGioOutputDlg@@IAEXXZ 67d9ac70 f   GioOutputDlg.obj
 0001:00019ca0       ?UpdateIO@CGioOutputDlg@@IAEXXZ 67d9aca0 f   GioOutputDlg.obj
 0001:00019e90       ?OnCtlColor@CGioOutputDlg@@IAEPAUHBRUSH__@@PAVCDC@@PAVCWnd@@I@Z 67d9ae90 f   GioOutputDlg.obj
 0001:00019f00       ?ChangePinState@CGioOutputDlg@@QAEXPAVCButton@@@Z 67d9af00 f   GioOutputDlg.obj
 0001:0001a060       ?OnPin1@CGioOutputDlg@@IAEXXZ 67d9b060 f   GioOutputDlg.obj
 0001:0001a0a0       ?OnPin2@CGioOutputDlg@@IAEXXZ 67d9b0a0 f   GioOutputDlg.obj
 0001:0001a0e0       ?OnPin3@CGioOutputDlg@@IAEXXZ 67d9b0e0 f   GioOutputDlg.obj
 0001:0001a120       ?OnPin4@CGioOutputDlg@@IAEXXZ 67d9b120 f   GioOutputDlg.obj
 0001:0001a160       ?OnPin5@CGioOutputDlg@@IAEXXZ 67d9b160 f   GioOutputDlg.obj
 0001:0001a1a0       ?OnPin6@CGioOutputDlg@@IAEXXZ 67d9b1a0 f   GioOutputDlg.obj
 0001:0001a1e0       ?OnPin7@CGioOutputDlg@@IAEXXZ 67d9b1e0 f   GioOutputDlg.obj
 0001:0001a220       ?OnPin8@CGioOutputDlg@@IAEXXZ 67d9b220 f   GioOutputDlg.obj
 0001:0001a260       ?OnPin9@CGioOutputDlg@@IAEXXZ 67d9b260 f   GioOutputDlg.obj
 0001:0001a2a0       ?OnPin10@CGioOutputDlg@@IAEXXZ 67d9b2a0 f   GioOutputDlg.obj
 0001:0001a2e0       ?OnPin11@CGioOutputDlg@@IAEXXZ 67d9b2e0 f   GioOutputDlg.obj
 0001:0001a320       ?OnPin12@CGioOutputDlg@@IAEXXZ 67d9b320 f   GioOutputDlg.obj
 0001:0001a500       ??_GCGioOutputDlg@@UAEPAXI@Z 67d9b500 f i GioOutputDlg.obj
 0001:0001a540       ??1CGioOutputDlg@@UAE@XZ   67d9b540 f i GioOutputDlg.obj
 0001:0001a610       ??_ECGioOutputDlg@@UAEPAXI@Z 67d9b610 f i GioOutputDlg.obj
 0001:0001a690       ??0CImageWnd@@QAE@PAVSapView@@PAVCWnd@@PAVCScrollBar@@21@Z 67d9b690 f   ImageWnd.obj
 0001:0001a7d0       ??0CImageWnd@@QAE@PAVSapView@@PAVCWnd@@@Z 67d9b7d0 f   ImageWnd.obj
 0001:0001a8f0       ??1CImageWnd@@UAE@XZ       67d9b8f0 f   ImageWnd.obj
 0001:0001a920       ?GetScrollPos@CImageWnd@@IAEHH@Z 67d9b920 f   ImageWnd.obj
 0001:0001a9c0       ?GetScrollRange@CImageWnd@@IAEXHPAH0@Z 67d9b9c0 f   ImageWnd.obj
 0001:0001aa70       ?GetScrollInfo@CImageWnd@@IAEHHPAUtagSCROLLINFO@@@Z 67d9ba70 f   ImageWnd.obj
 0001:0001ab20       ?SetScrollPos@CImageWnd@@IAEHHHH@Z 67d9bb20 f   ImageWnd.obj
 0001:0001abe0       ?SetScrollInfo@CImageWnd@@IAEHHPAUtagSCROLLINFO@@H@Z 67d9bbe0 f   ImageWnd.obj
 0001:0001aca0       ?IsPointInside@CImageWnd@@QAEHVCPoint@@@Z 67d9bca0 f   ImageWnd.obj
 0001:0001acf0       ?TranslateMousePos@CImageWnd@@QAE?AVCPoint@@V2@@Z 67d9bcf0 f   ImageWnd.obj
 0001:0001ade0       ?TranslatePos@CImageWnd@@QAE?AVCPoint@@V2@@Z 67d9bde0 f   ImageWnd.obj
 0001:0001b050       ?UntranslatePos@CImageWnd@@QAE?AVCPoint@@V2@@Z 67d9c050 f   ImageWnd.obj
 0001:0001b280       ?UpdateClientArea@CImageWnd@@QAEXK@Z 67d9c280 f   ImageWnd.obj
 0001:0001b420       ?UpdateClientArea@CImageWnd@@QAEXXZ 67d9c420 f   ImageWnd.obj
 0001:0001b4a0       ?OnMove@CImageWnd@@QAEXXZ  67d9c4a0 f   ImageWnd.obj
 0001:0001b510       ?OnPaint@CImageWnd@@QAEXXZ 67d9c510 f   ImageWnd.obj
 0001:0001b580       ?OnSize@CImageWnd@@QAEXH@Z 67d9c580 f   ImageWnd.obj
 0001:0001baf0       ?Invalidate@CImageWnd@@QAEXH@Z 67d9caf0 f   ImageWnd.obj
 0001:0001bb40       ?UpdateScrollBars@CImageWnd@@IAEXXZ 67d9cb40 f   ImageWnd.obj
 0001:0001bf10       ?OnHScroll@CImageWnd@@QAEXII@Z 67d9cf10 f   ImageWnd.obj
 0001:0001c090       ?OnVScroll@CImageWnd@@QAEXII@Z 67d9d090 f   ImageWnd.obj
 0001:0001c210       ?DisplayRoiTracker@CImageWnd@@QAEXXZ 67d9d210 f   ImageWnd.obj
 0001:0001c390       ?HideRoiTracker@CImageWnd@@QAEXXZ 67d9d390 f   ImageWnd.obj
 0001:0001c430       ?UpdateRectTracker@CImageWnd@@IAEXXZ 67d9d430 f   ImageWnd.obj
 0001:0001c4d0       ?ValidateRoi@CImageWnd@@IAE?AVCRect@@V2@@Z 67d9d4d0 f   ImageWnd.obj
 0001:0001c650       ?GetSelectedRoi@CImageWnd@@QAE?AVCRect@@XZ 67d9d650 f   ImageWnd.obj
 0001:0001c690       ?SelectRoi@CImageWnd@@QAEXVCRect@@@Z 67d9d690 f   ImageWnd.obj
 0001:0001c720       ?OnLButtonDown@CImageWnd@@QAEHVCPoint@@@Z 67d9d720 f   ImageWnd.obj
 0001:0001c8f0       ?OnSetCursor@CImageWnd@@QAEHI@Z 67d9d8f0 f   ImageWnd.obj
 0001:0001ca20       ?GetPixelString@CImageWnd@@QAE?AV?$CStringT@DV?$StrTraitMFC_DLL@DV?$ChTraitsCRT@D@ATL@@@@@ATL@@VCPoint@@@Z 67d9da20 f   ImageWnd.obj
 0001:0001d8a0       ?AdjustRect@CSapRectTracker@@UAEXHPAUtagRECT@@@Z 67d9e8a0 f   ImageWnd.obj
 0001:0001d980       ?SetLimitRect@CSapRectTracker@@QAEXPAVCRect@@@Z 67d9e980 f   ImageWnd.obj
 0001:0001d9d0       ??0CSapRectTracker@@QAE@XZ 67d9e9d0 f i ImageWnd.obj
 0001:0001da10       ??HATL@@YA?AV?$CStringT@DV?$StrTraitMFC_DLL@DV?$ChTraitsCRT@D@ATL@@@@@0@PBDABV10@@Z 67d9ea10 f i ImageWnd.obj
 0001:0001db60       ??_ECImageWnd@@UAEPAXI@Z   67d9eb60 f i ImageWnd.obj
 0001:0001dbe0       ??1CSapRectTracker@@UAE@XZ 67d9ebe0 f i ImageWnd.obj
 0001:0001dc10       ??_GCSapRectTracker@@UAEPAXI@Z 67d9ec10 f i ImageWnd.obj
 0001:0001dc10       ??_ECSapRectTracker@@UAEPAXI@Z 67d9ec10 f i ImageWnd.obj
 0001:0001dc50       ??0CJpegFileDlg@@QAE@PAVCWnd@@H@Z 67d9ec50 f   JpegFileDlg.obj
 0001:0001dcf0       ?OnFinalRelease@CJpegFileDlg@@UAEXXZ 67d9ecf0 f   JpegFileDlg.obj
 0001:0001dd20       ?DoDataExchange@CJpegFileDlg@@MAEXPAVCDataExchange@@@Z 67d9ed20 f   JpegFileDlg.obj
 0001:0001dd80       ?GetMessageMap@CJpegFileDlg@@MBEPBUAFX_MSGMAP@@XZ 67d9ed80 f   JpegFileDlg.obj
 0001:0001ddb0       ?GetThisMessageMap@CJpegFileDlg@@KGPBUAFX_MSGMAP@@XZ 67d9edb0 f   JpegFileDlg.obj
 0001:0001ddc0       ?GetThisDispatchMap@CJpegFileDlg@@KGPBUAFX_DISPMAP@@XZ 67d9edc0 f   JpegFileDlg.obj
 0001:0001ddd0       ?GetDispatchMap@CJpegFileDlg@@MBEPBUAFX_DISPMAP@@XZ 67d9edd0 f   JpegFileDlg.obj
 0001:0001ddf0       ?GetThisInterfaceMap@CJpegFileDlg@@KGPBUAFX_INTERFACEMAP@@XZ 67d9edf0 f   JpegFileDlg.obj
 0001:0001de00       ?GetInterfaceMap@CJpegFileDlg@@MBEPBUAFX_INTERFACEMAP@@XZ 67d9ee00 f   JpegFileDlg.obj
 0001:0001de20       ?OnVScroll@CJpegFileDlg@@IAEXIIPAVCScrollBar@@@Z 67d9ee20 f   JpegFileDlg.obj
 0001:0001dee0       ?OnOK@CJpegFileDlg@@MAEXXZ 67d9eee0 f   JpegFileDlg.obj
 0001:0001df20       ?OnUpdateJpgEditQuality@CJpegFileDlg@@IAEXXZ 67d9ef20 f   JpegFileDlg.obj
 0001:0001df50       ??_GCJpegFileDlg@@UAEPAXI@Z 67d9ef50 f i JpegFileDlg.obj
 0001:0001df50       ??_ECJpegFileDlg@@UAEPAXI@Z 67d9ef50 f i JpegFileDlg.obj
 0001:0001df90       ??1CJpegFileDlg@@UAE@XZ    67d9ef90 f i JpegFileDlg.obj
 0001:0001dfc0       ?_GetBaseClass@CLoadSaveDlg@@KGPAUCRuntimeClass@@XZ 67d9efc0 f   LoadSaveDlg.obj
 0001:0001dfe0       ?GetThisClass@CLoadSaveDlg@@SGPAUCRuntimeClass@@XZ 67d9efe0 f   LoadSaveDlg.obj
 0001:0001dff0       ?GetRuntimeClass@CLoadSaveDlg@@UBEPAUCRuntimeClass@@XZ 67d9eff0 f   LoadSaveDlg.obj
 0001:0001e010       ??0CLoadSaveDlg@@QAE@PAVCWnd@@PAVSapBuffer@@HH@Z 67d9f010 f   LoadSaveDlg.obj
 0001:0001e160       ?UpdateBuffer@CLoadSaveDlg@@IAEHXZ 67d9f160 f   LoadSaveDlg.obj
 0001:0001e510       ?DoModal@CLoadSaveDlg@@UAEHXZ 67d9f510 f   LoadSaveDlg.obj
 0001:0001e5d0       ?LoadSettings@CLoadSaveDlg@@IAEXXZ 67d9f5d0 f   LoadSaveDlg.obj
 0001:0001e6e0       ?SaveSettings@CLoadSaveDlg@@IAEXXZ 67d9f6e0 f   LoadSaveDlg.obj
 0001:0001e740       ?SetOptions@CLoadSaveDlg@@IAEHXZ 67d9f740 f   LoadSaveDlg.obj
 0001:0001e910       ?AddTiffOptions@CLoadSaveDlg@@IAEHXZ 67d9f910 f   LoadSaveDlg.obj
 0001:0001eb50       ?AddRawOptions@CLoadSaveDlg@@IAEHXZ 67d9fb50 f   LoadSaveDlg.obj
 0001:0001ee10       ?AddJpegOptions@CLoadSaveDlg@@IAEHXZ 67d9fe10 f   LoadSaveDlg.obj
 0001:0001efa0       ?AddAviOptions@CLoadSaveDlg@@IAEHXZ 67d9ffa0 f   LoadSaveDlg.obj
 0001:0001f0c0       ?SetFilterIndex@CLoadSaveDlg@@IAEXXZ 67da00c0 f   LoadSaveDlg.obj
 0001:0001f190       ?OnTypeChange@CLoadSaveDlg@@MAEXXZ 67da0190 f   LoadSaveDlg.obj
 0001:0001f2b0       ?GetMessageMap@CLoadSaveDlg@@MBEPBUAFX_MSGMAP@@XZ 67da02b0 f   LoadSaveDlg.obj
 0001:0001f2e0       ?GetThisMessageMap@CLoadSaveDlg@@KGPBUAFX_MSGMAP@@XZ 67da02e0 f   LoadSaveDlg.obj
 0001:0001f490       ?GetCompressionLevel@CTiffFileDlg@@QAEHXZ 67da0490 f i LoadSaveDlg.obj
 0001:0001f4b0       ?GetCompressionType@CTiffFileDlg@@QAEHXZ 67da04b0 f i LoadSaveDlg.obj
 0001:0001f4d0       ??1CTiffFileDlg@@UAE@XZ    67da04d0 f i LoadSaveDlg.obj
 0001:0001f500       ?GetRawFileWidth@CRawFileDlg@@QAEHXZ 67da0500 f i LoadSaveDlg.obj
 0001:0001f520       ?GetRawFileHeight@CRawFileDlg@@QAEHXZ 67da0520 f i LoadSaveDlg.obj
 0001:0001f540       ?GetRawFileOffset@CRawFileDlg@@QAEHXZ 67da0540 f i LoadSaveDlg.obj
 0001:0001f560       ?GetRawFileFormat@CRawFileDlg@@QAEHXZ 67da0560 f i LoadSaveDlg.obj
 0001:0001f580       ??1CRawFileDlg@@UAE@XZ     67da0580 f i LoadSaveDlg.obj
 0001:0001f5f0       ?GetJpegFileQuality@CJpegFileDlg@@QAEHXZ 67da05f0 f i LoadSaveDlg.obj
 0001:0001f610       ?GetFirstFrame@CAviFileDlg@@QAEHXZ 67da0610 f i LoadSaveDlg.obj
 0001:0001f630       ??_GCLoadSaveDlg@@UAEPAXI@Z 67da0630 f i LoadSaveDlg.obj
 0001:0001f670       ??_ECLoadSaveDlg@@UAEPAXI@Z 67da0670 f i LoadSaveDlg.obj
 0001:0001f6f0       ??0CLScanDlg@@QAE@PAVCWnd@@PAVSapAcquisition@@@Z 67da06f0 f   LScanDlg.obj
 0001:0001f830       ?DoDataExchange@CLScanDlg@@MAEXPAVCDataExchange@@@Z 67da0830 f   LScanDlg.obj
 0001:0001f950       ?GetMessageMap@CLScanDlg@@MBEPBUAFX_MSGMAP@@XZ 67da0950 f   LScanDlg.obj
 0001:0001f980       ?GetThisMessageMap@CLScanDlg@@KGPBUAFX_MSGMAP@@XZ 67da0980 f   LScanDlg.obj
 0001:0001f990       ?OnOK@CLScanDlg@@MAEXXZ    67da0990 f   LScanDlg.obj
 0001:000200f0       ?OnInitDialog@CLScanDlg@@MAEHXZ 67da10f0 f   LScanDlg.obj
 0001:00021030       ?UpdateWindow@CLScanDlg@@IAEXXZ 67da2030 f   LScanDlg.obj
 0001:000213d0       ?OnKillfocusEditLineIntegration@CLScanDlg@@IAEXXZ 67da23d0 f   LScanDlg.obj
 0001:00021410       ?OnExternalFrameTriggerEnable@CLScanDlg@@IAEXXZ 67da2410 f   LScanDlg.obj
 0001:000214c0       ?OnExternalLineTriggerEnable@CLScanDlg@@IAEXXZ 67da24c0 f   LScanDlg.obj
 0001:00021590       ?OnLineIntegrate@CLScanDlg@@IAEXXZ 67da2590 f   LScanDlg.obj
 0001:000215c0       ?OnVScroll@CLScanDlg@@IAEXIIPAVCScrollBar@@@Z 67da25c0 f   LScanDlg.obj
 0001:00021710       ?VerifyLineIntegrateDuration@CLScanDlg@@IAEXXZ 67da2710 f   LScanDlg.obj
 0001:00021830       ?OnInternalLineTriggerEnable@CLScanDlg@@IAEXXZ 67da2830 f   LScanDlg.obj
 0001:000218c0       ?OnLineIntegrateEnable@CLScanDlg@@IAEXXZ 67da28c0 f   LScanDlg.obj
 0001:00021940       ?OnShaftEncoderEnable@CLScanDlg@@IAEXXZ 67da2940 f   LScanDlg.obj
 0001:00021b80       ??_ECLScanDlg@@WHE@AEPAXI@Z 67da2b80 f i LScanDlg.obj
 0001:00021b90       ??_GCLScanDlg@@UAEPAXI@Z   67da2b90 f i LScanDlg.obj
 0001:00021bd0       ??1CLScanDlg@@UAE@XZ       67da2bd0 f i LScanDlg.obj
 0001:00021c70       ??_ECLScanDlg@@UAEPAXI@Z   67da2c70 f i LScanDlg.obj
 0001:00021cf0       ??0CPixProAbsSubDlg@@QAE@PAVCWnd@@PAUCORPPL_FCT_PROP@@PAVSapPixProParams@@@Z 67da2cf0 f   PixProAbsSubDlg.obj
 0001:00021d70       ?DoDataExchange@CPixProAbsSubDlg@@MAEXPAVCDataExchange@@@Z 67da2d70 f   PixProAbsSubDlg.obj
 0001:00021da0       ?GetMessageMap@CPixProAbsSubDlg@@MBEPBUAFX_MSGMAP@@XZ 67da2da0 f   PixProAbsSubDlg.obj
 0001:00021dd0       ?GetThisMessageMap@CPixProAbsSubDlg@@KGPBUAFX_MSGMAP@@XZ 67da2dd0 f   PixProAbsSubDlg.obj
 0001:00021de0       ?OnInitDialog@CPixProAbsSubDlg@@MAEHXZ 67da2de0 f   PixProAbsSubDlg.obj
 0001:00021ea0       ?OnPixproSdramBank0@CPixProAbsSubDlg@@IAEXXZ 67da2ea0 f   PixProAbsSubDlg.obj
 0001:00021ec0       ?OnPixproSdramBank1@CPixProAbsSubDlg@@IAEXXZ 67da2ec0 f   PixProAbsSubDlg.obj
 0001:00021ee0       ?OnPixproAbsSub@CPixProAbsSubDlg@@IAEXXZ 67da2ee0 f   PixProAbsSubDlg.obj
 0001:00021f00       ?OnPixproRefImage@CPixProAbsSubDlg@@IAEXXZ 67da2f00 f   PixProAbsSubDlg.obj
 0001:00021f20       ?OnOK@CPixProAbsSubDlg@@MAEXXZ 67da2f20 f   PixProAbsSubDlg.obj
 0001:00021f90       ??_ECPixProAbsSubDlg@@UAEPAXI@Z 67da2f90 f i PixProAbsSubDlg.obj
 0001:00021f90       ??_GCPixProAbsSubDlg@@UAEPAXI@Z 67da2f90 f i PixProAbsSubDlg.obj
 0001:00021fd0       ??1CPixProAbsSubDlg@@UAE@XZ 67da2fd0 f i PixProAbsSubDlg.obj
 0001:00022000       ??0CPixProDlg@@QAE@PAVCWnd@@PAVSapPixPro@@PAVSapXferNode@@@Z 67da3000 f   PixProDlg.obj
 0001:000222b0       ?LoadSettings@CPixProDlg@@IAEXXZ 67da32b0 f   PixProDlg.obj
 0001:00022490       ?SaveSettings@CPixProDlg@@IAEXXZ 67da3490 f   PixProDlg.obj
 0001:00022570       ?SetDirectories@CPixProDlg@@IAEXXZ 67da3570 f   PixProDlg.obj
 0001:00022860       ?DoDataExchange@CPixProDlg@@MAEXPAVCDataExchange@@@Z 67da3860 f   PixProDlg.obj
 0001:00022920       ?GetMessageMap@CPixProDlg@@MBEPBUAFX_MSGMAP@@XZ 67da3920 f   PixProDlg.obj
 0001:00022950       ?GetThisMessageMap@CPixProDlg@@KGPBUAFX_MSGMAP@@XZ 67da3950 f   PixProDlg.obj
 0001:00022960       ?OnInitDialog@CPixProDlg@@MAEHXZ 67da3960 f   PixProDlg.obj
 0001:000229b0       ?OnBrowse@CPixProDlg@@IAEXXZ 67da39b0 f   PixProDlg.obj
 0001:00022ac0       ?OnOK@CPixProDlg@@MAEXXZ   67da3ac0 f   PixProDlg.obj
 0001:00022f70       ?OnKillfocusEditPath@CPixProDlg@@IAEXXZ 67da3f70 f   PixProDlg.obj
 0001:00023020       ?UpdateCurrentDir@CPixProDlg@@IAEXPAD@Z 67da4020 f   PixProDlg.obj
 0001:000230d0       ?UpdateNames@CPixProDlg@@IAEXXZ 67da40d0 f   PixProDlg.obj
 0001:00023440       ?UpdateBoxAvailability@CPixProDlg@@IAEXXZ 67da4440 f   PixProDlg.obj
 0001:00023500       ?OnSelchangeCombo@CPixProDlg@@IAEXXZ 67da4500 f   PixProDlg.obj
 0001:000235a0       ?FillFunctionCombo@CPixProDlg@@IAEXXZ 67da45a0 f   PixProDlg.obj
 0001:000238e0       ?OnSelchangeFunction@CPixProDlg@@IAEXXZ 67da48e0 f   PixProDlg.obj
 0001:00023b80       ??1CPixProRefImageDlg@@UAE@XZ 67da4b80 f i PixProDlg.obj
 0001:00023bb0       ??1CPixProUflowSubDlg@@UAE@XZ 67da4bb0 f i PixProDlg.obj
 0001:00023be0       ??1CPixProWAvgDlg@@UAE@XZ  67da4be0 f i PixProDlg.obj
 0001:00023c50       ??1CPixProIntScaleDlg@@UAE@XZ 67da4c50 f i PixProDlg.obj
 0001:00023cc0       ??_GCPixProDlg@@UAEPAXI@Z  67da4cc0 f i PixProDlg.obj
 0001:00023d00       ??1CPixProDlg@@UAE@XZ      67da4d00 f i PixProDlg.obj
 0001:00023dc0       ??_ECPixProDlg@@UAEPAXI@Z  67da4dc0 f i PixProDlg.obj
 0001:00023e40       ??0CPixProIntScaleDlg@@QAE@PAVCWnd@@PAUCORPPL_FCT_PROP@@PAVSapPixProParams@@@Z 67da4e40 f   PixProIntScaleDlg.obj
 0001:00023f20       ?DoDataExchange@CPixProIntScaleDlg@@MAEXPAVCDataExchange@@@Z 67da4f20 f   PixProIntScaleDlg.obj
 0001:00023f80       ?GetMessageMap@CPixProIntScaleDlg@@MBEPBUAFX_MSGMAP@@XZ 67da4f80 f   PixProIntScaleDlg.obj
 0001:00023fb0       ?GetThisMessageMap@CPixProIntScaleDlg@@KGPBUAFX_MSGMAP@@XZ 67da4fb0 f   PixProIntScaleDlg.obj
 0001:00023fc0       ?OnInitDialog@CPixProIntScaleDlg@@MAEHXZ 67da4fc0 f   PixProIntScaleDlg.obj
 0001:000240d0       ?OnPixproSdramBank0@CPixProIntScaleDlg@@IAEXXZ 67da50d0 f   PixProIntScaleDlg.obj
 0001:000240f0       ?OnPixproSdramBank1@CPixProIntScaleDlg@@IAEXXZ 67da50f0 f   PixProIntScaleDlg.obj
 0001:00024110       ?OnSelchangeCount@CPixProIntScaleDlg@@IAEXXZ 67da5110 f   PixProIntScaleDlg.obj
 0001:00024150       ?OnOK@CPixProIntScaleDlg@@MAEXXZ 67da5150 f   PixProIntScaleDlg.obj
 0001:000241e0       ??_ECPixProIntScaleDlg@@UAEPAXI@Z 67da51e0 f i PixProIntScaleDlg.obj
 0001:000241e0       ??_GCPixProIntScaleDlg@@UAEPAXI@Z 67da51e0 f i PixProIntScaleDlg.obj
 0001:00024220       ??0CPixProRefImageDlg@@QAE@PAVCWnd@@PAUCORPPL_FCT_PROP@@PAVSapPixProParams@@@Z 67da5220 f   PixProRefImageDlg.obj
 0001:00024290       ?DoDataExchange@CPixProRefImageDlg@@MAEXPAVCDataExchange@@@Z 67da5290 f   PixProRefImageDlg.obj
 0001:000242c0       ?GetMessageMap@CPixProRefImageDlg@@MBEPBUAFX_MSGMAP@@XZ 67da52c0 f   PixProRefImageDlg.obj
 0001:000242f0       ?GetThisMessageMap@CPixProRefImageDlg@@KGPBUAFX_MSGMAP@@XZ 67da52f0 f   PixProRefImageDlg.obj
 0001:00024300       ?OnInitDialog@CPixProRefImageDlg@@MAEHXZ 67da5300 f   PixProRefImageDlg.obj
 0001:000243b0       ?OnPixproSdramBank0@CPixProRefImageDlg@@IAEXXZ 67da53b0 f   PixProRefImageDlg.obj
 0001:000243d0       ?OnPixproSdramBank1@CPixProRefImageDlg@@IAEXXZ 67da53d0 f   PixProRefImageDlg.obj
 0001:000243f0       ?OnOK@CPixProRefImageDlg@@MAEXXZ 67da53f0 f   PixProRefImageDlg.obj
 0001:00024440       ??_ECPixProRefImageDlg@@UAEPAXI@Z 67da5440 f i PixProRefImageDlg.obj
 0001:00024440       ??_GCPixProRefImageDlg@@UAEPAXI@Z 67da5440 f i PixProRefImageDlg.obj
 0001:00024480       ??0CPixProUflowSubDlg@@QAE@PAVCWnd@@PAUCORPPL_FCT_PROP@@PAVSapPixProParams@@@Z 67da5480 f   PixProUflowSubDlg.obj
 0001:00024500       ?DoDataExchange@CPixProUflowSubDlg@@MAEXPAVCDataExchange@@@Z 67da5500 f   PixProUflowSubDlg.obj
 0001:00024530       ?GetMessageMap@CPixProUflowSubDlg@@MBEPBUAFX_MSGMAP@@XZ 67da5530 f   PixProUflowSubDlg.obj
 0001:00024560       ?GetThisMessageMap@CPixProUflowSubDlg@@KGPBUAFX_MSGMAP@@XZ 67da5560 f   PixProUflowSubDlg.obj
 0001:00024570       ?OnInitDialog@CPixProUflowSubDlg@@MAEHXZ 67da5570 f   PixProUflowSubDlg.obj
 0001:00024630       ?OnPixproSdramBank0@CPixProUflowSubDlg@@IAEXXZ 67da5630 f   PixProUflowSubDlg.obj
 0001:00024650       ?OnPixproSdramBank1@CPixProUflowSubDlg@@IAEXXZ 67da5650 f   PixProUflowSubDlg.obj
 0001:00024670       ?OnPixproUflowSub@CPixProUflowSubDlg@@IAEXXZ 67da5670 f   PixProUflowSubDlg.obj
 0001:00024690       ?OnPixproRefImage@CPixProUflowSubDlg@@IAEXXZ 67da5690 f   PixProUflowSubDlg.obj
 0001:000246b0       ?OnOK@CPixProUflowSubDlg@@MAEXXZ 67da56b0 f   PixProUflowSubDlg.obj
 0001:00024720       ??_GCPixProUflowSubDlg@@UAEPAXI@Z 67da5720 f i PixProUflowSubDlg.obj
 0001:00024720       ??_ECPixProUflowSubDlg@@UAEPAXI@Z 67da5720 f i PixProUflowSubDlg.obj
 0001:00024760       ??0CPixProWAvgDlg@@QAE@PAVCWnd@@PAUCORPPL_FCT_PROP@@PAVSapPixProParams@@@Z 67da5760 f   PixProWAvgDlg.obj
 0001:00024840       ?DoDataExchange@CPixProWAvgDlg@@MAEXPAVCDataExchange@@@Z 67da5840 f   PixProWAvgDlg.obj
 0001:00024880       ?GetMessageMap@CPixProWAvgDlg@@MBEPBUAFX_MSGMAP@@XZ 67da5880 f   PixProWAvgDlg.obj
 0001:000248b0       ?GetThisMessageMap@CPixProWAvgDlg@@KGPBUAFX_MSGMAP@@XZ 67da58b0 f   PixProWAvgDlg.obj
 0001:000248c0       ?OnInitDialog@CPixProWAvgDlg@@MAEHXZ 67da58c0 f   PixProWAvgDlg.obj
 0001:00024a00       ?OnPixproSdramBank0@CPixProWAvgDlg@@IAEXXZ 67da5a00 f   PixProWAvgDlg.obj
 0001:00024a20       ?OnPixproSdramBank1@CPixProWAvgDlg@@IAEXXZ 67da5a20 f   PixProWAvgDlg.obj
 0001:00024a40       ?OnPixproWeightedAvg@CPixProWAvgDlg@@IAEXXZ 67da5a40 f   PixProWAvgDlg.obj
 0001:00024a60       ?OnPixproRefImage@CPixProWAvgDlg@@IAEXXZ 67da5a60 f   PixProWAvgDlg.obj
 0001:00024a80       ?OnSelchangeFactor@CPixProWAvgDlg@@IAEXXZ 67da5a80 f   PixProWAvgDlg.obj
 0001:00024ac0       ?OnOK@CPixProWAvgDlg@@MAEXXZ 67da5ac0 f   PixProWAvgDlg.obj
 0001:00024b50       ??_GCPixProWAvgDlg@@UAEPAXI@Z 67da5b50 f i PixProWAvgDlg.obj
 0001:00024b50       ??_ECPixProWAvgDlg@@UAEPAXI@Z 67da5b50 f i PixProWAvgDlg.obj
 0001:00024b90       ??0CRawFileDlg@@QAE@PAVCWnd@@HHHH@Z 67da5b90 f   RawFileDlg.obj
 0001:00024ca0       ?DoDataExchange@CRawFileDlg@@MAEXPAVCDataExchange@@@Z 67da5ca0 f   RawFileDlg.obj
 0001:00024d30       ?GetMessageMap@CRawFileDlg@@MBEPBUAFX_MSGMAP@@XZ 67da5d30 f   RawFileDlg.obj
 0001:00024d60       ?GetThisMessageMap@CRawFileDlg@@KGPBUAFX_MSGMAP@@XZ 67da5d60 f   RawFileDlg.obj
 0001:00024d70       ?OnOK@CRawFileDlg@@MAEXXZ  67da5d70 f   RawFileDlg.obj
 0001:00024e40       ?OnInitDialog@CRawFileDlg@@MAEHXZ 67da5e40 f   RawFileDlg.obj
 0001:00024f40       ?OnSelchangeComboFormat@CRawFileDlg@@IAEXXZ 67da5f40 f   RawFileDlg.obj
 0001:00024fa0       ??_ECRawFileDlg@@UAEPAXI@Z 67da5fa0 f i RawFileDlg.obj
 0001:00024fa0       ??_GCRawFileDlg@@UAEPAXI@Z 67da5fa0 f i RawFileDlg.obj
 0001:00024fe0       _ExtRawDllMain@12          67da5fe0 f   SapClassGui.obj
 0001:00025050       ?SapClassGuiInitModule@@YAXXZ 67da6050 f   SapClassGui.obj
 0001:000250f0       _DllMain@12                67da60f0 f   SapClassGui.obj
 0001:000251e0       ??B?$CTypedSimpleList@PAUCRuntimeClass@@@@QAEPAUCRuntimeClass@@XZ 67da61e0 f i SapClassGui.obj
 0001:00025210       ??B?$CTypedSimpleList@PAVCOleObjectFactory@@@@QAEPAVCOleObjectFactory@@XZ 67da6210 f i SapClassGui.obj
 0001:00025240       ??0CTraceFileAndLineInfo@ATL@@QAE@PBDH@Z 67da6240 f i SapClassGui.obj
 0001:00025270       ??RCTraceFileAndLineInfo@ATL@@QBAXPBDZZ 67da6270 f i SapClassGui.obj
 0001:000252d0       ?TraceV@CTrace@ATL@@QBAXPBDHKI0PAD@Z 67da62d0 f i SapClassGui.obj
 0001:00025310       ??BCTraceCategory@ATL@@QBEKXZ 67da6310 f i SapClassGui.obj
 0001:00025330       ?GetHead@CSimpleList@@QBEPAXXZ 67da6330 f i SapClassGui.obj
 0001:00025350       ?_AfxInitManaged@@YAHXZ    67da6350 f i SapClassGui.obj
 0001:00025360       ??0CImageWnd@@QAE@ABV0@@Z  67da6360 f i SapClassGui.obj
 0001:00025450       ??4CImageWnd@@QAEAAV0@ABV0@@Z 67da6450 f i SapClassGui.obj
 0001:00025530       ??_GCImageWnd@@UAEPAXI@Z   67da6530 f i SapClassGui.obj
 0001:00025570       ??0CSapRectTracker@@QAE@ABV0@@Z 67da6570 f i SapClassGui.obj
 0001:000255d0       ??4CSapRectTracker@@QAEAAV0@ABV0@@Z 67da65d0 f i SapClassGui.obj
 0001:00025620       ??0CRectTracker@@QAE@ABV0@@Z 67da6620 f i SapClassGui.obj
 0001:000256f0       ??4CRectTracker@@QAEAAV0@ABV0@@Z 67da66f0 f i SapClassGui.obj
 0001:000257b0       ??_GCRectTracker@@UAEPAXI@Z 67da67b0 f i SapClassGui.obj
 0001:000257b0       ??_ECRectTracker@@UAEPAXI@Z 67da67b0 f i SapClassGui.obj
 0001:000257f0       ?GetBuffer@CBufDlg@@QAEAAVSapBuffer@@XZ 67da67f0 f i SapClassGui.obj
 0001:00025810       ?GetConfigFile@CAcqConfigDlg@@QAEPADXZ 67da6810 f i SapClassGui.obj
 0001:00025850       ?GetServerCategory@CAcqConfigDlg@@QAE?AW4ServerCategory@1@XZ 67da6850 f i SapClassGui.obj
 0001:00025870       ?GetAcquisition@CAcqConfigDlg@@QAEAAVSapAcquisition@@XZ 67da6870 f i SapClassGui.obj
 0001:00025890       ??1CViewDlg@@UAE@XZ        67da6890 f i SapClassGui.obj
 0001:00025930       ??_FCViewDlg@@QAEXXZ       67da6930 f i SapClassGui.obj
 0001:00025960       ?GetType@CLoadSaveDlg@@QAEHXZ 67da6960 f i SapClassGui.obj
 0001:00025980       ?GetOptions@CLoadSaveDlg@@QAE?AV?$CStringT@DV?$StrTraitMFC_DLL@DV?$ChTraitsCRT@D@ATL@@@@@ATL@@XZ 67da6980 f i SapClassGui.obj
 0001:000259e0       ?GetStartFrame@CLoadSaveDlg@@QAEHXZ 67da69e0 f i SapClassGui.obj
 0001:00025a00       ?GetRawFileWidth@CLoadSaveDlg@@QAEHXZ 67da6a00 f i SapClassGui.obj
 0001:00025a20       ?GetRawFileHeight@CLoadSaveDlg@@QAEHXZ 67da6a20 f i SapClassGui.obj
 0001:00025a40       ?GetRawFileOffset@CLoadSaveDlg@@QAEHXZ 67da6a40 f i SapClassGui.obj
 0001:00025a60       ?GetRawFileFormat@CLoadSaveDlg@@QAEHXZ 67da6a60 f i SapClassGui.obj
 0001:00025a80       ?GetCab@CCabDlg@@QAEAAVSapCab@@XZ 67da6a80 f i SapClassGui.obj
 0001:00025aa0       ?GetAcquisition@CCamVicDlg@@QAEAAVSapAcquisition@@XZ 67da6aa0 f i SapClassGui.obj
 0001:00025ac0       ?GetPixPro@CPixProDlg@@QAEAAVSapPixPro@@XZ 67da6ac0 f i SapClassGui.obj
 0001:00025ae0       ??0Thank_you@Define_the_symbol__ATL_MIXED@@QAE@XZ 67da6ae0 f i SapClassGui.obj
 0001:00025b00       ?one@Thank_you@Define_the_symbol__ATL_MIXED@@UAEXXZ 67da6b00 f i SapClassGui.obj
 0001:00025b20       ??0CTiffFileDlg@@QAE@PAVCWnd@@HH@Z 67da6b20 f   TiffFileDlg.obj
 0001:00025be0       ?DoDataExchange@CTiffFileDlg@@MAEXPAVCDataExchange@@@Z 67da6be0 f   TiffFileDlg.obj
 0001:00025c50       ?GetMessageMap@CTiffFileDlg@@MBEPBUAFX_MSGMAP@@XZ 67da6c50 f   TiffFileDlg.obj
 0001:00025c80       ?GetThisMessageMap@CTiffFileDlg@@KGPBUAFX_MSGMAP@@XZ 67da6c80 f   TiffFileDlg.obj
 0001:00025c90       ?OnVScroll@CTiffFileDlg@@IAEXIIPAVCScrollBar@@@Z 67da6c90 f   TiffFileDlg.obj
 0001:00025d30       ?OnUpdateTiffEditCompressionLevel@CTiffFileDlg@@IAEXXZ 67da6d30 f   TiffFileDlg.obj
 0001:00025d60       ?OnOK@CTiffFileDlg@@MAEXXZ 67da6d60 f   TiffFileDlg.obj
 0001:00025dc0       ??_GCTiffFileDlg@@UAEPAXI@Z 67da6dc0 f i TiffFileDlg.obj
 0001:00025dc0       ??_ECTiffFileDlg@@UAEPAXI@Z 67da6dc0 f i TiffFileDlg.obj
 0001:00025e00       ?DoDataExchange@CViewDlg@@MAEXPAVCDataExchange@@@Z 67da6e00 f   ViewDlg.obj
 0001:00025fc0       ?GetMessageMap@CViewDlg@@MBEPBUAFX_MSGMAP@@XZ 67da6fc0 f   ViewDlg.obj
 0001:00025ff0       ?GetThisMessageMap@CViewDlg@@KGPBUAFX_MSGMAP@@XZ 67da6ff0 f   ViewDlg.obj
 0001:00026000       ??0CViewDlg@@QAE@PAVCWnd@@PAVSapView@@@Z 67da7000 f   ViewDlg.obj
 0001:00026350       ?OnInitDialog@CViewDlg@@MAEHXZ 67da7350 f   ViewDlg.obj
 0001:00026470       ?LoadSettings@CViewDlg@@IAEXXZ 67da7470 f   ViewDlg.obj
 0001:000264b0       ?SaveSettings@CViewDlg@@IAEXXZ 67da74b0 f   ViewDlg.obj
 0001:000264f0       ?OnUpdateEditViewRange@CViewDlg@@IAEXXZ 67da74f0 f   ViewDlg.obj
 0001:00026580       ?OnHScroll@CViewDlg@@IAEXIIPAVCScrollBar@@@Z 67da7580 f   ViewDlg.obj
 0001:00026670       ?SetRange@CViewDlg@@IAEXXZ 67da7670 f   ViewDlg.obj
 0001:000266f0       ?OnUpdateScaleHeight@CViewDlg@@IAEXXZ 67da76f0 f   ViewDlg.obj
 0001:00026830       ?OnUpdateScaleHeightFactor@CViewDlg@@IAEXXZ 67da7830 f   ViewDlg.obj
 0001:00026990       ?OnUpdateScaleWidth@CViewDlg@@IAEXXZ 67da7990 f   ViewDlg.obj
 0001:00026ad0       ?OnUpdateScaleWidthFactor@CViewDlg@@IAEXXZ 67da7ad0 f   ViewDlg.obj
 0001:00026c30       ?OnDeltaposSpinScaleHeight@CViewDlg@@IAEXPAUtagNMHDR@@PAJ@Z 67da7c30 f   ViewDlg.obj
 0001:00026dd0       ?OnDeltaposSpinScaleHeightFactor@CViewDlg@@IAEXPAUtagNMHDR@@PAJ@Z 67da7dd0 f   ViewDlg.obj
 0001:00026fa0       ?OnDeltaposSpinScaleWidth@CViewDlg@@IAEXPAUtagNMHDR@@PAJ@Z 67da7fa0 f   ViewDlg.obj
 0001:00027140       ?OnDeltaposSpinScaleWidthFactor@CViewDlg@@IAEXPAUtagNMHDR@@PAJ@Z 67da8140 f   ViewDlg.obj
 0001:00027310       ?OnLockAspectRatio@CViewDlg@@IAEXXZ 67da8310 f   ViewDlg.obj
 0001:00027400       ?OnScalingNone@CViewDlg@@IAEXXZ 67da8400 f   ViewDlg.obj
 0001:00027550       ?OnScalingFitToWindow@CViewDlg@@IAEXXZ 67da8550 f   ViewDlg.obj
 0001:000278a0       ?OnOK@CViewDlg@@MAEXXZ     67da88a0 f   ViewDlg.obj
 0001:00027940       ?OnCancel@CViewDlg@@MAEXXZ 67da8940 f   ViewDlg.obj
 0001:00027980       ?floor@@YAMM@Z             67da8980 f i ViewDlg.obj
 0001:000279a0       _floorf                    67da89a0 f i ViewDlg.obj
 0001:000279e0       ??_GCViewDlg@@UAEPAXI@Z    67da89e0 f i ViewDlg.obj
 0001:00027a20       ??_ECViewDlg@@UAEPAXI@Z    67da8a20 f i ViewDlg.obj
 0001:00027a9c       _CorAcqGetCap@12           67da8a9c f   Corapi:CORAPI.dll
 0001:00027aa2       _CorCabSetPrm@12           67da8aa2 f   Corapi:CORAPI.dll
 0001:00027aa8       ??1SapAcquisition@@UAE@XZ  67da8aa8 f   SapClassBasic:SapClassBasic74.dll
 0001:00027aae       ??1SapManager@@UAE@XZ      67da8aae f   SapClassBasic:SapClassBasic74.dll
 0001:00027ab4       ??0SapAcquisition@@QAE@VSapLocation@@@Z 67da8ab4 f   SapClassBasic:SapClassBasic74.dll
 0001:00027aba       ??0SapLocation@@QAE@HH@Z   67da8aba f   SapClassBasic:SapClassBasic74.dll
 0001:00027ac0       ??0SapManager@@QAE@XZ      67da8ac0 f   SapClassBasic:SapClassBasic74.dll
 0001:00027ac6       ??1SapLocation@@UAE@XZ     67da8ac6 f   SapClassBasic:SapClassBasic74.dll
 0001:00027acc       ?GetResourceIndex@SapLocation@@QBEHXZ 67da8acc f   SapClassBasic:SapClassBasic74.dll
 0001:00027ad2       ?GetServerName@SapManager@@SAHVSapLocation@@PADH@Z 67da8ad2 f   SapClassBasic:SapClassBasic74.dll
 0001:00027ad8       ??0SapLocation@@QAE@ABV0@@Z 67da8ad8 f   SapClassBasic:SapClassBasic74.dll
 0001:00027ade       ?GetConfigFile@SapAcquisition@@QBEPBDXZ 67da8ade f   SapClassBasic:SapClassBasic74.dll
 0001:00027ae4       ?GetLocation@SapXferNode@@QBE?AVSapLocation@@XZ 67da8ae4 f   SapClassBasic:SapClassBasic74.dll
 0001:00027aea       ??4SapAcquisition@@QAEAAV0@ABV0@@Z 67da8aea f   SapClassBasic:SapClassBasic74.dll
 0001:00027af0       ??0SapLocation@@QAE@PBDH@Z 67da8af0 f   SapClassBasic:SapClassBasic74.dll
 0001:00027af6       ?SetLocation@SapXferNode@@QAEHVSapLocation@@@Z 67da8af6 f   SapClassBasic:SapClassBasic74.dll
 0001:00027afc       ?GetServerName@SapManager@@SAHHPADH@Z 67da8afc f   SapClassBasic:SapClassBasic74.dll
 0001:00027b02       ?GetResourceCount@SapManager@@SAHHH@Z 67da8b02 f   SapClassBasic:SapClassBasic74.dll
 0001:00027b08       ?GetServerCount@SapManager@@SAHXZ 67da8b08 f   SapClassBasic:SapClassBasic74.dll
 0001:00027b0e       ?IsResourceAvailable@SapManager@@SAHPBDHH@Z 67da8b0e f   SapClassBasic:SapClassBasic74.dll
 0001:00027b14       ?GetResourceName@SapManager@@SAHPBDHHPADH@Z 67da8b14 f   SapClassBasic:SapClassBasic74.dll
 0001:00027b1a       ?GetResourceCount@SapManager@@SAHPBDH@Z 67da8b1a f   SapClassBasic:SapClassBasic74.dll
 0001:00027b20       ?GetResourceCount@SapManager@@SAHVSapLocation@@H@Z 67da8b20 f   SapClassBasic:SapClassBasic74.dll
 0001:00027b26       ?DisplayStatus@SapManager@@SAIPBDI@Z 67da8b26 f   SapClassBasic:SapClassBasic74.dll
 0001:00027b2c       ??1SapDataFRGB@@UAE@XZ     67da8b2c f   SapClassBasic:SapClassBasic74.dll
 0001:00027b32       ?IsEnabled@SapBayer@@QBEHXZ 67da8b32 f   SapClassBasic:SapClassBasic74.dll
 0001:00027b38       ?IsLutEnabled@SapBayer@@QBEHXZ 67da8b38 f   SapClassBasic:SapClassBasic74.dll
 0001:00027b3e       ?GetGamma@SapBayer@@QBEMXZ 67da8b3e f   SapClassBasic:SapClassBasic74.dll
 0001:00027b44       ?Blue@SapDataFRGB@@QAEMXZ  67da8b44 f   SapClassBasic:SapClassBasic74.dll
 0001:00027b4a       ?Green@SapDataFRGB@@QAEMXZ 67da8b4a f   SapClassBasic:SapClassBasic74.dll
 0001:00027b50       ?Red@SapDataFRGB@@QAEMXZ   67da8b50 f   SapClassBasic:SapClassBasic74.dll
 0001:00027b56       ?GetWBGain@SapBayer@@QBE?AVSapDataFRGB@@XZ 67da8b56 f   SapClassBasic:SapClassBasic74.dll
 0001:00027b5c       ?GetMethod@SapBayer@@QBEHXZ 67da8b5c f   SapClassBasic:SapClassBasic74.dll
 0001:00027b62       ?GetAlign@SapBayer@@QBEHXZ 67da8b62 f   SapClassBasic:SapClassBasic74.dll
 0001:00027b68       ?GetAvailMethod@SapBayer@@QBEHXZ 67da8b68 f   SapClassBasic:SapClassBasic74.dll
 0001:00027b6e       ?GetAvailAlign@SapBayer@@QBEHXZ 67da8b6e f   SapClassBasic:SapClassBasic74.dll
 0001:00027b74       ?IsSoftware@SapBayer@@QBEHXZ 67da8b74 f   SapClassBasic:SapClassBasic74.dll
 0001:00027b7a       ??0SapDataFRGB@@QAE@MMM@Z  67da8b7a f   SapClassBasic:SapClassBasic74.dll
 0001:00027b80       ??BSapManager@@QBEHXZ      67da8b80 f   SapClassBasic:SapClassBasic74.dll
 0001:00027b86       ??1SapBuffer@@UAE@XZ       67da8b86 f   SapClassBasic:SapClassBasic74.dll
 0001:00027b8c       ?IsBufferTypeSupported@SapBuffer@@SAHVSapLocation@@H@Z 67da8b8c f   SapClassBasic:SapClassBasic74.dll
 0001:00027b92       ??4SapLocation@@QAEAAV0@ABV0@@Z 67da8b92 f   SapClassBasic:SapClassBasic74.dll
 0001:00027b98       ?GetSrcNode@SapXferNode@@QBEPAV1@XZ 67da8b98 f   SapClassBasic:SapClassBasic74.dll
 0001:00027b9e       ?GetPixelDepth@SapBuffer@@QBEHXZ 67da8b9e f   SapClassBasic:SapClassBasic74.dll
 0001:00027ba4       ?GetType@SapBuffer@@QBEHXZ 67da8ba4 f   SapClassBasic:SapClassBasic74.dll
 0001:00027baa       ?GetFormat@SapBuffer@@QBEHXZ 67da8baa f   SapClassBasic:SapClassBasic74.dll
 0001:00027bb0       ?GetHeight@SapBuffer@@QBEHXZ 67da8bb0 f   SapClassBasic:SapClassBasic74.dll
 0001:00027bb6       ?GetWidth@SapBuffer@@QBEHXZ 67da8bb6 f   SapClassBasic:SapClassBasic74.dll
 0001:00027bbc       ??0SapLocation@@QAE@XZ     67da8bbc f   SapClassBasic:SapClassBasic74.dll
 0001:00027bc2       ??0SapBuffer@@QAE@HHHHHVSapLocation@@@Z 67da8bc2 f   SapClassBasic:SapClassBasic74.dll
 0001:00027bc8       ?GetPixelDepthMax@SapManager@@SAHH@Z 67da8bc8 f   SapClassBasic:SapClassBasic74.dll
 0001:00027bce       ?GetPixelDepthMin@SapManager@@SAHH@Z 67da8bce f   SapClassBasic:SapClassBasic74.dll
 0001:00027bd4       ??0SapCab@@QAE@VSapLocation@@PAVSapXferNode@@@Z 67da8bd4 f   SapClassBasic:SapClassBasic74.dll
 0001:00027bda       ??0SapLocation@@QAE@ABV0@H@Z 67da8bda f   SapClassBasic:SapClassBasic74.dll
 0001:00027be0       ?Create@SapCab@@UAEHXZ     67da8be0 f   SapClassBasic:SapClassBasic74.dll
 0001:00027be6       ?Destroy@SapCab@@UAEHXZ    67da8be6 f   SapClassBasic:SapClassBasic74.dll
 0001:00027bec       ?GetXferParams@SapCab@@UBE?AVSapXferParams@@H@Z 67da8bec f   SapClassBasic:SapClassBasic74.dll
 0001:00027bf2       ?GetInputXferParams@SapCab@@UBE?AVSapXferParams@@H@Z 67da8bf2 f   SapClassBasic:SapClassBasic74.dll
 0001:00027bf8       ?GetOutputXferParams@SapCab@@UBE?AVSapXferParams@@H@Z 67da8bf8 f   SapClassBasic:SapClassBasic74.dll
 0001:00027bfe       ?SetSrcNode@SapXferNode@@UAEHPAV1@H@Z 67da8bfe f   SapClassBasic:SapClassBasic74.dll
 0001:00027c04       ?SetXferParams@SapCab@@UAEHVSapXferParams@@H@Z 67da8c04 f   SapClassBasic:SapClassBasic74.dll
 0001:00027c0a       ?SetInputXferParams@SapCab@@UAEHVSapXferParams@@H@Z 67da8c0a f   SapClassBasic:SapClassBasic74.dll
 0001:00027c10       ?SetOutputXferParams@SapCab@@UAEHVSapXferParams@@H@Z 67da8c10 f   SapClassBasic:SapClassBasic74.dll
 0001:00027c16       ?GetHandle@SapXferNode@@UBEPAU__CORHANDLE@@H@Z 67da8c16 f   SapClassBasic:SapClassBasic74.dll
 0001:00027c1c       ?GetHandle@SapXferNode@@UBEPAU__CORHANDLE@@XZ 67da8c1c f   SapClassBasic:SapClassBasic74.dll
 0001:00027c22       ?GetXferParamsFromSrcNode@SapXferNode@@UAEXXZ 67da8c22 f   SapClassBasic:SapClassBasic74.dll
 0001:00027c28       ?GetXferNodeType@SapCab@@UAE?AW4XferNodeType@SapXferNode@@XZ 67da8c28 f   SapClassBasic:SapClassBasic74.dll
 0001:00027c2e       ?IsBuffer@SapXferNode@@UAEHXZ 67da8c2e f   SapClassBasic:SapClassBasic74.dll
 0001:00027c34       ??ASapXferNode@@UBEPAU__CORHANDLE@@H@Z 67da8c34 f   SapClassBasic:SapClassBasic74.dll
 0001:00027c3a       ?GetCount@SapXferNode@@UBEHXZ 67da8c3a f   SapClassBasic:SapClassBasic74.dll
 0001:00027c40       ?GetIndex@SapXferNode@@UBEHXZ 67da8c40 f   SapClassBasic:SapClassBasic74.dll
 0001:00027c46       ?SetIndex@SapXferNode@@UAEHH@Z 67da8c46 f   SapClassBasic:SapClassBasic74.dll
 0001:00027c4c       ?ResetIndex@SapXferNode@@UAEXXZ 67da8c4c f   SapClassBasic:SapClassBasic74.dll
 0001:00027c52       ?Next@SapXferNode@@UAEXXZ  67da8c52 f   SapClassBasic:SapClassBasic74.dll
 0001:00027c58       ?GetTrash@SapXferNode@@UBEPAU__CORHANDLE@@XZ 67da8c58 f   SapClassBasic:SapClassBasic74.dll
 0001:00027c5e       ?Empty@SapXferNode@@UAEHH@Z 67da8c5e f   SapClassBasic:SapClassBasic74.dll
 0001:00027c64       ?Empty@SapXferNode@@UAEHXZ 67da8c64 f   SapClassBasic:SapClassBasic74.dll
 0001:00027c6a       ?EmptyAll@SapXferNode@@UAEHXZ 67da8c6a f   SapClassBasic:SapClassBasic74.dll
 0001:00027c70       ?GetCapability@SapCab@@UAEHHPAX@Z 67da8c70 f   SapClassBasic:SapClassBasic74.dll
 0001:00027c76       ?GetParameter@SapCab@@UAEHHPAX@Z 67da8c76 f   SapClassBasic:SapClassBasic74.dll
 0001:00027c7c       ?SetParameter@SapCab@@UAEHHPAX@Z 67da8c7c f   SapClassBasic:SapClassBasic74.dll
 0001:00027c82       ?SetParameter@SapCab@@UAEHHH@Z 67da8c82 f   SapClassBasic:SapClassBasic74.dll
 0001:00027c88       ?Construct@SapCab@@MAEXHHPBH@Z 67da8c88 f   SapClassBasic:SapClassBasic74.dll
 0001:00027c8e       ??1SapCab@@UAE@XZ          67da8c8e f   SapClassBasic:SapClassBasic74.dll
 0001:00027c94       ?GetVicFile@SapAcquisition@@QBEPBDXZ 67da8c94 f   SapClassBasic:SapClassBasic74.dll
 0001:00027c9a       ?GetCamFile@SapAcquisition@@QBEPBDXZ 67da8c9a f   SapClassBasic:SapClassBasic74.dll
 0001:00027ca0       ?Destroy@SapFeature@@UAEHXZ 67da8ca0 f   SapClassBasic:SapClassBasic74.dll
 0001:00027ca6       ?GetDisplayName@SapFeature@@QAEHPADH@Z 67da8ca6 f   SapClassBasic:SapClassBasic74.dll
 0001:00027cac       ?GetFeatureInfo@SapAcqDevice@@QAEHPBDPAVSapFeature@@@Z 67da8cac f   SapClassBasic:SapClassBasic74.dll
 0001:00027cb2       ?GetFileNameByIndex@SapAcqDevice@@QAEHHPADH@Z 67da8cb2 f   SapClassBasic:SapClassBasic74.dll
 0001:00027cb8       ?GetFileCount@SapAcqDevice@@QAEHPAH@Z 67da8cb8 f   SapClassBasic:SapClassBasic74.dll
 0001:00027cbe       ??1SapFeature@@UAE@XZ      67da8cbe f   SapClassBasic:SapClassBasic74.dll
 0001:00027cc4       ?GetFeatureValue@SapAcqDevice@@QAEHPBDPADH@Z 67da8cc4 f   SapClassBasic:SapClassBasic74.dll
 0001:00027cca       ?IsFeatureAvailable@SapAcqDevice@@QAEHPBDPAH@Z 67da8cca f   SapClassBasic:SapClassBasic74.dll
 0001:00027cd0       ?Create@SapFeature@@UAEHXZ 67da8cd0 f   SapClassBasic:SapClassBasic74.dll
 0001:00027cd6       ??0SapFeature@@QAE@VSapLocation@@@Z 67da8cd6 f   SapClassBasic:SapClassBasic74.dll
 0001:00027cdc       ?GetAcqDevice@SapFlatField@@QBEPAVSapAcqDevice@@XZ 67da8cdc f   SapClassBasic:SapClassBasic74.dll
 0001:00027ce2       ?GetNumFlatField@SapFlatField@@QBEHXZ 67da8ce2 f   SapClassBasic:SapClassBasic74.dll
 0001:00027ce8       ?GetBlackPixelPercentage@SapFlatField@@QBEMXZ 67da8ce8 f   SapClassBasic:SapClassBasic74.dll
 0001:00027cee       ?IsClippedGainOffsetDefects@SapFlatField@@QBEHXZ 67da8cee f   SapClassBasic:SapClassBasic74.dll
 0001:00027cf4       ?GetIndex@SapFlatField@@QBEHXZ 67da8cf4 f   SapClassBasic:SapClassBasic74.dll
 0001:00027cfa       ?GetDeviationMaxWhite@SapFlatField@@QBEHXZ 67da8cfa f   SapClassBasic:SapClassBasic74.dll
 0001:00027d00       ?GetDeviationMaxBlack@SapFlatField@@QBEHXZ 67da8d00 f   SapClassBasic:SapClassBasic74.dll
 0001:00027d06       ?GetGainDivisor@SapFlatField@@QBEHXZ 67da8d06 f   SapClassBasic:SapClassBasic74.dll
 0001:00027d0c       ?GetVerticalOffset@SapFlatField@@QBEHXZ 67da8d0c f   SapClassBasic:SapClassBasic74.dll
 0001:00027d12       ?GetNumFramesAverage@SapFlatField@@QBEHXZ 67da8d12 f   SapClassBasic:SapClassBasic74.dll
 0001:00027d18       ?GetNumLinesAverage@SapFlatField@@QBEHXZ 67da8d18 f   SapClassBasic:SapClassBasic74.dll
 0001:00027d1e       ?GetVideoType@SapFlatField@@QBE?AW4VideoType@SapAcquisition@@XZ 67da8d1e f   SapClassBasic:SapClassBasic74.dll
 0001:00027d24       ?GetCorrectionType@SapFlatField@@QBE?AW4CorrectionType@1@XZ 67da8d24 f   SapClassBasic:SapClassBasic74.dll
 0001:00027d2a       ?GetOffsetMinMax@SapFlatField@@QAEXPAH0@Z 67da8d2a f   SapClassBasic:SapClassBasic74.dll
 0001:00027d30       ?Load@SapBuffer@@UAEHPBD0HH@Z 67da8d30 f   SapClassBasic:SapClassBasic74.dll
 0001:00027d36       ?Create@SapBuffer@@UAEHXZ  67da8d36 f   SapClassBasic:SapClassBasic74.dll
 0001:00027d3c       ??0SapBuffer@@QAE@PBDHVSapLocation@@@Z 67da8d3c f   SapClassBasic:SapClassBasic74.dll
 0001:00027d42       ??0SapBuffer@@QAE@HPAVSapXferNode@@HVSapLocation@@@Z 67da8d42 f   SapClassBasic:SapClassBasic74.dll
 0001:00027d48       ?Destroy@SapBuffer@@UAEHXZ 67da8d48 f   SapClassBasic:SapClassBasic74.dll
 0001:00027d4e       ?GetXferParams@SapXferNode@@UBE?AVSapXferParams@@H@Z 67da8d4e f   SapClassBasic:SapClassBasic74.dll
 0001:00027d54       ?GetInputXferParams@SapXferNode@@UBE?AVSapXferParams@@H@Z 67da8d54 f   SapClassBasic:SapClassBasic74.dll
 0001:00027d5a       ?GetOutputXferParams@SapXferNode@@UBE?AVSapXferParams@@H@Z 67da8d5a f   SapClassBasic:SapClassBasic74.dll
 0001:00027d60       ?SetXferParams@SapXferNode@@UAEHVSapXferParams@@H@Z 67da8d60 f   SapClassBasic:SapClassBasic74.dll
 0001:00027d66       ?SetInputXferParams@SapXferNode@@UAEHVSapXferParams@@H@Z 67da8d66 f   SapClassBasic:SapClassBasic74.dll
 0001:00027d6c       ?SetOutputXferParams@SapXferNode@@UAEHVSapXferParams@@H@Z 67da8d6c f   SapClassBasic:SapClassBasic74.dll
 0001:00027d72       ?GetHandle@SapBuffer@@UBEPAU__CORHANDLE@@H@Z 67da8d72 f   SapClassBasic:SapClassBasic74.dll
 0001:00027d78       ?GetHandle@SapBuffer@@UBEPAU__CORHANDLE@@XZ 67da8d78 f   SapClassBasic:SapClassBasic74.dll
 0001:00027d7e       ?GetXferNodeType@SapBuffer@@UAE?AW4XferNodeType@SapXferNode@@XZ 67da8d7e f   SapClassBasic:SapClassBasic74.dll
 0001:00027d84       ??ASapBuffer@@UBEPAU__CORHANDLE@@H@Z 67da8d84 f   SapClassBasic:SapClassBasic74.dll
 0001:00027d8a       ?GetCount@SapBuffer@@UBEHXZ 67da8d8a f   SapClassBasic:SapClassBasic74.dll
 0001:00027d90       ?GetIndex@SapBuffer@@UBEHXZ 67da8d90 f   SapClassBasic:SapClassBasic74.dll
 0001:00027d96       ?SetIndex@SapBuffer@@UAEHH@Z 67da8d96 f   SapClassBasic:SapClassBasic74.dll
 0001:00027d9c       ?ResetIndex@SapBuffer@@UAEXXZ 67da8d9c f   SapClassBasic:SapClassBasic74.dll
 0001:00027da2       ?Next@SapBuffer@@UAEXXZ    67da8da2 f   SapClassBasic:SapClassBasic74.dll
 0001:00027da8       ?GetTrash@SapBuffer@@UBEPAU__CORHANDLE@@XZ 67da8da8 f   SapClassBasic:SapClassBasic74.dll
 0001:00027dae       ?Empty@SapBuffer@@UAEHH@Z  67da8dae f   SapClassBasic:SapClassBasic74.dll
 0001:00027db4       ?Empty@SapBuffer@@UAEHXZ   67da8db4 f   SapClassBasic:SapClassBasic74.dll
 0001:00027dba       ?EmptyAll@SapBuffer@@UAEHXZ 67da8dba f   SapClassBasic:SapClassBasic74.dll
 0001:00027dc0       ?SetCount@SapBuffer@@UAEHH@Z 67da8dc0 f   SapClassBasic:SapClassBasic74.dll
 0001:00027dc6       ?SetWidth@SapBuffer@@UAEHH@Z 67da8dc6 f   SapClassBasic:SapClassBasic74.dll
 0001:00027dcc       ?SetHeight@SapBuffer@@UAEHH@Z 67da8dcc f   SapClassBasic:SapClassBasic74.dll
 0001:00027dd2       ?SetFormat@SapBuffer@@UAEHH@Z 67da8dd2 f   SapClassBasic:SapClassBasic74.dll
 0001:00027dd8       ?SetType@SapBuffer@@UAEHH@Z 67da8dd8 f   SapClassBasic:SapClassBasic74.dll
 0001:00027dde       ?SetPixelDepth@SapBuffer@@UAEHH@Z 67da8dde f   SapClassBasic:SapClassBasic74.dll
 0001:00027de4       ?SetVirtualAddress@SapBuffer@@UAEHQAPAX@Z 67da8de4 f   SapClassBasic:SapClassBasic74.dll
 0001:00027dea       ?SetPhysicalAddress@SapBuffer@@UAEHQAK@Z 67da8dea f   SapClassBasic:SapClassBasic74.dll
 0001:00027df0       ?SetParameters@SapBuffer@@UAEHHQAKHHHH@Z 67da8df0 f   SapClassBasic:SapClassBasic74.dll
 0001:00027df6       ?SetParameters@SapBuffer@@UAEHHQAPAXHHHH@Z 67da8df6 f   SapClassBasic:SapClassBasic74.dll
 0001:00027dfc       ?SetParameters@SapBuffer@@UAEHHHHHH@Z 67da8dfc f   SapClassBasic:SapClassBasic74.dll
 0001:00027e02       ?SetParametersFromFile@SapBuffer@@UAEHPBDH@Z 67da8e02 f   SapClassBasic:SapClassBasic74.dll
 0001:00027e08       ?SetFrameRate@SapBuffer@@UAEXM@Z 67da8e08 f   SapClassBasic:SapClassBasic74.dll
 0001:00027e0e       ?GetAddress@SapBuffer@@UAEHH_KIPAXPAPAX@Z 67da8e0e f   SapClassBasic:SapClassBasic74.dll
 0001:00027e14       ?GetAddress@SapBuffer@@UAEHH_KIPAPAX@Z 67da8e14 f   SapClassBasic:SapClassBasic74.dll
 0001:00027e1a       ?GetAddress@SapBuffer@@UAEH_KIPAXPAPAX@Z 67da8e1a f   SapClassBasic:SapClassBasic74.dll
 0001:00027e20       ?GetAddress@SapBuffer@@UAEH_KIPAPAX@Z 67da8e20 f   SapClassBasic:SapClassBasic74.dll
 0001:00027e26       ?GetAddress@SapBuffer@@UAEHHPAXPAPAX@Z 67da8e26 f   SapClassBasic:SapClassBasic74.dll
 0001:00027e2c       ?GetAddress@SapBuffer@@UAEHHPAPAX@Z 67da8e2c f   SapClassBasic:SapClassBasic74.dll
 0001:00027e32       ?GetAddress@SapBuffer@@UAEHPAXPAPAX@Z 67da8e32 f   SapClassBasic:SapClassBasic74.dll
 0001:00027e38       ?GetAddress@SapBuffer@@UAEHPAPAX@Z 67da8e38 f   SapClassBasic:SapClassBasic74.dll
 0001:00027e3e       ?ReleaseAddress@SapBuffer@@UAEHHPAX@Z 67da8e3e f   SapClassBasic:SapClassBasic74.dll
 0001:00027e44       ?ReleaseAddress@SapBuffer@@UAEHPAX@Z 67da8e44 f   SapClassBasic:SapClassBasic74.dll
 0001:00027e4a       ?IsMapped@SapBuffer@@UAEHXZ 67da8e4a f   SapClassBasic:SapClassBasic74.dll
 0001:00027e50       ?IsMapped@SapBuffer@@UAEHH@Z 67da8e50 f   SapClassBasic:SapClassBasic74.dll
 0001:00027e56       ?GetCounterStamp@SapBuffer@@UAEHHPAH@Z 67da8e56 f   SapClassBasic:SapClassBasic74.dll
 0001:00027e5c       ?GetCounterStamp@SapBuffer@@UAEHPAH@Z 67da8e5c f   SapClassBasic:SapClassBasic74.dll
 0001:00027e62       ?GetHostCounterStamp@SapBuffer@@UAEHHPA_K@Z 67da8e62 f   SapClassBasic:SapClassBasic74.dll
 0001:00027e68       ?GetHostCounterStamp@SapBuffer@@UAEHPA_K@Z 67da8e68 f   SapClassBasic:SapClassBasic74.dll
 0001:00027e6e       ?GetSpaceUsed@SapBuffer@@UAEHHPAH@Z 67da8e6e f   SapClassBasic:SapClassBasic74.dll
 0001:00027e74       ?GetSpaceUsed@SapBuffer@@UAEHPAH@Z 67da8e74 f   SapClassBasic:SapClassBasic74.dll
 0001:00027e7a       ?GetHandles@SapBuffer@@UBEPAPAU__CORHANDLE@@XZ 67da8e7a f   SapClassBasic:SapClassBasic74.dll
 0001:00027e80       ?IsCapabilityValid@SapBuffer@@UAEHH@Z 67da8e80 f   SapClassBasic:SapClassBasic74.dll
 0001:00027e86       ?GetCapability@SapBuffer@@UAEHHHPAX@Z 67da8e86 f   SapClassBasic:SapClassBasic74.dll
 0001:00027e8c       ?GetCapability@SapBuffer@@UAEHHPAX@Z 67da8e8c f   SapClassBasic:SapClassBasic74.dll
 0001:00027e92       ?IsParameterValid@SapBuffer@@UAEHH@Z 67da8e92 f   SapClassBasic:SapClassBasic74.dll
 0001:00027e98       ?GetParameter@SapBuffer@@UAEHHHPAX@Z 67da8e98 f   SapClassBasic:SapClassBasic74.dll
 0001:00027e9e       ?GetParameter@SapBuffer@@UAEHHPAX@Z 67da8e9e f   SapClassBasic:SapClassBasic74.dll
 0001:00027ea4       ?SetParameter@SapBuffer@@UAEHHHPAX@Z 67da8ea4 f   SapClassBasic:SapClassBasic74.dll
 0001:00027eaa       ?SetParameter@SapBuffer@@UAEHHPAX@Z 67da8eaa f   SapClassBasic:SapClassBasic74.dll
 0001:00027eb0       ?SetParameter@SapBuffer@@UAEHHHH@Z 67da8eb0 f   SapClassBasic:SapClassBasic74.dll
 0001:00027eb6       ?SetParameter@SapBuffer@@UAEHHH@Z 67da8eb6 f   SapClassBasic:SapClassBasic74.dll
 0001:00027ebc       ?GetParent@SapBuffer@@UAEPAV1@XZ 67da8ebc f   SapClassBasic:SapClassBasic74.dll
 0001:00027ec2       ?GetRoot@SapBuffer@@UAEPAV1@XZ 67da8ec2 f   SapClassBasic:SapClassBasic74.dll
 0001:00027ec8       ?SetState@SapBuffer@@UAEHHH@Z 67da8ec8 f   SapClassBasic:SapClassBasic74.dll
 0001:00027ece       ?SetState@SapBuffer@@UAEHH@Z 67da8ece f   SapClassBasic:SapClassBasic74.dll
 0001:00027ed4       ?SetAllState@SapBuffer@@UAEHH@Z 67da8ed4 f   SapClassBasic:SapClassBasic74.dll
 0001:00027eda       ?GetState@SapBuffer@@UAEHHPAH@Z 67da8eda f   SapClassBasic:SapClassBasic74.dll
 0001:00027ee0       ?GetState@SapBuffer@@UAEHPAH@Z 67da8ee0 f   SapClassBasic:SapClassBasic74.dll
 0001:00027ee6       ?SetPage@SapBuffer@@UAEHHH@Z 67da8ee6 f   SapClassBasic:SapClassBasic74.dll
 0001:00027eec       ?SetPage@SapBuffer@@UAEHH@Z 67da8eec f   SapClassBasic:SapClassBasic74.dll
 0001:00027ef2       ?SetAllPage@SapBuffer@@UAEHH@Z 67da8ef2 f   SapClassBasic:SapClassBasic74.dll
 0001:00027ef8       ?GetPage@SapBuffer@@UAEHHPAH@Z 67da8ef8 f   SapClassBasic:SapClassBasic74.dll
 0001:00027efe       ?GetPage@SapBuffer@@UAEHPAH@Z 67da8efe f   SapClassBasic:SapClassBasic74.dll
 0001:00027f04       ?Clear@SapBuffer@@UAEHHVSapData@@@Z 67da8f04 f   SapClassBasic:SapClassBasic74.dll
 0001:00027f0a       ?Clear@SapBuffer@@UAEHVSapData@@@Z 67da8f0a f   SapClassBasic:SapClassBasic74.dll
 0001:00027f10       ?Clear@SapBuffer@@UAEHH@Z  67da8f10 f   SapClassBasic:SapClassBasic74.dll
 0001:00027f16       ?Clear@SapBuffer@@UAEHXZ   67da8f16 f   SapClassBasic:SapClassBasic74.dll
 0001:00027f1c       ?Load@SapBuffer@@UAEHPBDHHH0@Z 67da8f1c f   SapClassBasic:SapClassBasic74.dll
 0001:00027f22       ?Save@SapBuffer@@UAEHPBD0HH@Z 67da8f22 f   SapClassBasic:SapClassBasic74.dll
 0001:00027f28       ?Read@SapBuffer@@UAEHH_KHPAX@Z 67da8f28 f   SapClassBasic:SapClassBasic74.dll
 0001:00027f2e       ?Read@SapBuffer@@UAEH_KHPAX@Z 67da8f2e f   SapClassBasic:SapClassBasic74.dll
 0001:00027f34       ?ReadElement@SapBuffer@@UAEHHHPAH00@Z 67da8f34 f   SapClassBasic:SapClassBasic74.dll
 0001:00027f3a       ?ReadElement@SapBuffer@@UAEHHHHPAVSapData@@@Z 67da8f3a f   SapClassBasic:SapClassBasic74.dll
 0001:00027f40       ?ReadElement@SapBuffer@@UAEHHHPAVSapData@@@Z 67da8f40 f   SapClassBasic:SapClassBasic74.dll
 0001:00027f46       ?ReadElement@SapBuffer@@UAEHHHHPAX@Z 67da8f46 f   SapClassBasic:SapClassBasic74.dll
 0001:00027f4c       ?ReadElement@SapBuffer@@UAEHHHPAX@Z 67da8f4c f   SapClassBasic:SapClassBasic74.dll
 0001:00027f52       ?ReadLine@SapBuffer@@UAEHHHHHHPAXPAH@Z 67da8f52 f   SapClassBasic:SapClassBasic74.dll
 0001:00027f58       ?ReadLine@SapBuffer@@UAEHHHHHPAXPAH@Z 67da8f58 f   SapClassBasic:SapClassBasic74.dll
 0001:00027f5e       ?ReadRect@SapBuffer@@UAEHHHHHHPAX@Z 67da8f5e f   SapClassBasic:SapClassBasic74.dll
 0001:00027f64       ?ReadRect@SapBuffer@@UAEHHHHHPAX@Z 67da8f64 f   SapClassBasic:SapClassBasic74.dll
 0001:00027f6a       ?Write@SapBuffer@@UAEHH_KHPBX@Z 67da8f6a f   SapClassBasic:SapClassBasic74.dll
 0001:00027f70       ?Write@SapBuffer@@UAEH_KHPBX@Z 67da8f70 f   SapClassBasic:SapClassBasic74.dll
 0001:00027f76       ?WriteElement@SapBuffer@@UAEHHHHVSapData@@@Z 67da8f76 f   SapClassBasic:SapClassBasic74.dll
 0001:00027f7c       ?WriteElement@SapBuffer@@UAEHHHVSapData@@@Z 67da8f7c f   SapClassBasic:SapClassBasic74.dll
 0001:00027f82       ?WriteElement@SapBuffer@@UAEHHHHPBX@Z 67da8f82 f   SapClassBasic:SapClassBasic74.dll
 0001:00027f88       ?WriteElement@SapBuffer@@UAEHHHPBX@Z 67da8f88 f   SapClassBasic:SapClassBasic74.dll
 0001:00027f8e       ?WriteLine@SapBuffer@@UAEHHHHHHPBXPAH@Z 67da8f8e f   SapClassBasic:SapClassBasic74.dll
 0001:00027f94       ?WriteLine@SapBuffer@@UAEHHHHHPBXPAH@Z 67da8f94 f   SapClassBasic:SapClassBasic74.dll
 0001:00027f9a       ?WriteRect@SapBuffer@@UAEHHHHHHPBX@Z 67da8f9a f   SapClassBasic:SapClassBasic74.dll
 0001:00027fa0       ?WriteRect@SapBuffer@@UAEHHHHHPBX@Z 67da8fa0 f   SapClassBasic:SapClassBasic74.dll
 0001:00027fa6       ?Copy@SapBuffer@@UAEHPAV1@HH@Z 67da8fa6 f   SapClassBasic:SapClassBasic74.dll
 0001:00027fac       ?Copy@SapBuffer@@UAEHPAV1@@Z 67da8fac f   SapClassBasic:SapClassBasic74.dll
 0001:00027fb2       ?CopyAll@SapBuffer@@UAEHPAV1@@Z 67da8fb2 f   SapClassBasic:SapClassBasic74.dll
 0001:00027fb8       ?CopyRect@SapBuffer@@UAEHPAV1@HHHHHHHH@Z 67da8fb8 f   SapClassBasic:SapClassBasic74.dll
 0001:00027fbe       ?BayerConvert@SapBuffer@@UAEHPAV1@HHHHVSapDataFRGB@@PAVSapLut@@@Z 67da8fbe f   SapClassBasic:SapClassBasic74.dll
 0001:00027fc4       ?BayerConvert@SapBuffer@@UAEHPAV1@HHVSapDataFRGB@@PAVSapLut@@@Z 67da8fc4 f   SapClassBasic:SapClassBasic74.dll
 0001:00027fca       ?BayerWhiteBalance@SapBuffer@@UAEHHHPAVSapDataFRGB@@@Z 67da8fca f   SapClassBasic:SapClassBasic74.dll
 0001:00027fd0       ?BayerWhiteBalance@SapBuffer@@UAEHHPAVSapDataFRGB@@@Z 67da8fd0 f   SapClassBasic:SapClassBasic74.dll
 0001:00027fd6       ?SplitComponents@SapBuffer@@UAEHPAV1@H@Z 67da8fd6 f   SapClassBasic:SapClassBasic74.dll
 0001:00027fdc       ?SplitComponents@SapBuffer@@UAEHPAV1@@Z 67da8fdc f   SapClassBasic:SapClassBasic74.dll
 0001:00027fe2       ?MergeComponents@SapBuffer@@UAEHPAV1@H@Z 67da8fe2 f   SapClassBasic:SapClassBasic74.dll
 0001:00027fe8       ?MergeComponents@SapBuffer@@UAEHPAV1@@Z 67da8fe8 f   SapClassBasic:SapClassBasic74.dll
 0001:00027fee       ?Register@SapBuffer@@UAEHPBD@Z 67da8fee f   SapClassBasic:SapClassBasic74.dll
 0001:00027ff4       ?Unregister@SapBuffer@@UAEHXZ 67da8ff4 f   SapClassBasic:SapClassBasic74.dll
 0001:00027ffa       ?GetNumRoi@SapBuffer@@UBEHXZ 67da8ffa f   SapClassBasic:SapClassBasic74.dll
 0001:00028000       ?GetRoi@SapBuffer@@UBEQAUtagRECT@@H@Z 67da9000 f   SapClassBasic:SapClassBasic74.dll
 0001:00028006       ?AddRoi@SapBuffer@@UAEHUtagRECT@@@Z 67da9006 f   SapClassBasic:SapClassBasic74.dll
 0001:0002800c       ?RemoveAllRoi@SapBuffer@@UAEHXZ 67da900c f   SapClassBasic:SapClassBasic74.dll
 0001:00028012       ?GetChild@SapBuffer@@UBEPAU__CORHANDLE@@HH@Z 67da9012 f   SapClassBasic:SapClassBasic74.dll
 0001:00028018       ?Construct@SapBuffer@@MAEXPBDPAVSapDisplay@@@Z 67da9018 f   SapClassBasic:SapClassBasic74.dll
 0001:0002801e       ?GetLastStatus@SapManager@@SAPBDXZ 67da901e f   SapClassBasic:SapClassBasic74.dll
 0001:00028024       ?GetAverage@SapFlatFieldStats@@QBEHH@Z 67da9024 f   SapClassBasic:SapClassBasic74.dll
 0001:0002802a       ?GetNumComponents@SapFlatFieldStats@@QBEHXZ 67da902a f   SapClassBasic:SapClassBasic74.dll
 0001:00028030       ??1SapFlatFieldStats@@QAE@XZ 67da9030 f   SapClassBasic:SapClassBasic74.dll
 0001:00028036       ??0SapFlatFieldStats@@QAE@XZ 67da9036 f   SapClassBasic:SapClassBasic74.dll
 0001:0002803c       ??1SapFlatFieldDefects@@QAE@XZ 67da903c f   SapClassBasic:SapClassBasic74.dll
 0001:00028042       ?GetNumDefects@SapFlatFieldDefects@@QBEHXZ 67da9042 f   SapClassBasic:SapClassBasic74.dll
 0001:00028048       ?GetDefectRatio@SapFlatFieldDefects@@QBEMXZ 67da9048 f   SapClassBasic:SapClassBasic74.dll
 0001:0002804e       ?GetNumClusters@SapFlatFieldDefects@@QBEHXZ 67da904e f   SapClassBasic:SapClassBasic74.dll
 0001:00028054       ??0SapFlatFieldDefects@@QAE@XZ 67da9054 f   SapClassBasic:SapClassBasic74.dll
 0001:0002805a       ?GetStdDeviation@SapFlatFieldStats@@QBEHH@Z 67da905a f   SapClassBasic:SapClassBasic74.dll
 0001:00028060       ?GetLow@SapFlatFieldStats@@QBEHH@Z 67da9060 f   SapClassBasic:SapClassBasic74.dll
 0001:00028066       ?GetHigh@SapFlatFieldStats@@QBEHH@Z 67da9066 f   SapClassBasic:SapClassBasic74.dll
 0001:0002806c       ?GetPeakPosition@SapFlatFieldStats@@QBEHH@Z 67da906c f   SapClassBasic:SapClassBasic74.dll
 0001:00028072       ?GetPixelRatio@SapFlatFieldStats@@QBEMH@Z 67da9072 f   SapClassBasic:SapClassBasic74.dll
 0001:00028078       ?GetNumPixels@SapFlatFieldStats@@QBEHH@Z 67da9078 f   SapClassBasic:SapClassBasic74.dll
 0001:0002807e       ?WriteFile@SapAcqDevice@@QAEHPBDH@Z 67da907e f   SapClassBasic:SapClassBasic74.dll
 0001:00028084       ?SetCommandTimeout@SapManager@@SAXH@Z 67da9084 f   SapClassBasic:SapClassBasic74.dll
 0001:0002808a       ?GetCommandTimeout@SapManager@@SAHXZ 67da908a f   SapClassBasic:SapClassBasic74.dll
 0001:00028090       ?GetPinNumber@SapGioCallbackInfo@@QBEHXZ 67da9090 f   SapClassBasic:SapClassBasic74.dll
 0001:00028096       ?GetEventCount@SapGioCallbackInfo@@QBEHXZ 67da9096 f   SapClassBasic:SapClassBasic74.dll
 0001:0002809c       ?GetContext@SapGioCallbackInfo@@QBEPAXXZ 67da909c f   SapClassBasic:SapClassBasic74.dll
 0001:000280a2       ?GetNumPins@SapGio@@QBEHXZ 67da90a2 f   SapClassBasic:SapClassBasic74.dll
 0001:000280a8       ?SetDisplayStatusMode@SapManager@@SAHHP6AXPAVSapManCallbackInfo@@@ZPAX@Z 67da90a8 f   SapClassBasic:SapClassBasic74.dll
 0001:000280ae       ?GetBuffer@SapView@@QBEPAVSapBuffer@@XZ 67da90ae f   SapClassBasic:SapClassBasic74.dll
 0001:000280b4       ?ZoomVert@SapViewScaleParams@@QBEMXZ 67da90b4 f   SapClassBasic:SapClassBasic74.dll
 0001:000280ba       ?ZoomHorz@SapViewScaleParams@@QBEMXZ 67da90ba f   SapClassBasic:SapClassBasic74.dll
 0001:000280c0       ?GetScaleParamsSrc@SapView@@QAEABVSapViewScaleParams@@XZ 67da90c0 f   SapClassBasic:SapClassBasic74.dll
 0001:000280c6       ?Top@SapViewScaleParams@@QBEHXZ 67da90c6 f   SapClassBasic:SapClassBasic74.dll
 0001:000280cc       ?Left@SapViewScaleParams@@QBEHXZ 67da90cc f   SapClassBasic:SapClassBasic74.dll
 0001:000280d2       ?GetScaleParamsDst@SapView@@QAEABVSapViewScaleParams@@XZ 67da90d2 f   SapClassBasic:SapClassBasic74.dll
 0001:000280d8       ?GetScrollRange@SapView@@QBE?AUtagSIZE@@XZ 67da90d8 f   SapClassBasic:SapClassBasic74.dll
 0001:000280de       ?GetScrollPos@SapView@@QBE?AUtagPOINT@@XZ 67da90de f   SapClassBasic:SapClassBasic74.dll
 0001:000280e4       ?Height@SapViewScaleParams@@QBEHXZ 67da90e4 f   SapClassBasic:SapClassBasic74.dll
 0001:000280ea       ?Width@SapViewScaleParams@@QBEHXZ 67da90ea f   SapClassBasic:SapClassBasic74.dll
 0001:000280f0       ?GetScalingMode@SapView@@QBE?AW4ScalingMode@1@XZ 67da90f0 f   SapClassBasic:SapClassBasic74.dll
 0001:000280f6       ??1SapDataMono@@UAE@XZ     67da90f6 f   SapClassBasic:SapClassBasic74.dll
 0001:000280fc       ?Mono@SapDataMono@@QAEHXZ  67da90fc f   SapClassBasic:SapClassBasic74.dll
 0001:00028102       ??0SapDataMono@@QAE@XZ     67da9102 f   SapClassBasic:SapClassBasic74.dll
 0001:00028108       ??1SapData@@UAE@XZ         67da9108 f   SapClassBasic:SapClassBasic74.dll
 0001:0002810e       ??0SapDataRGB@@QAE@ABVSapData@@@Z 67da910e f   SapClassBasic:SapClassBasic74.dll
 0001:00028114       ??0SapData@@QAE@XZ         67da9114 f   SapClassBasic:SapClassBasic74.dll
 0001:0002811a       ??1SapDataRGB@@UAE@XZ      67da911a f   SapClassBasic:SapClassBasic74.dll
 0001:00028120       ?Red@SapDataRGB@@QAEHXZ    67da9120 f   SapClassBasic:SapClassBasic74.dll
 0001:00028126       ?Green@SapDataRGB@@QAEHXZ  67da9126 f   SapClassBasic:SapClassBasic74.dll
 0001:0002812c       ?Blue@SapDataRGB@@QAEHXZ   67da912c f   SapClassBasic:SapClassBasic74.dll
 0001:00028132       ??0SapDataRGB@@QAE@XZ      67da9132 f   SapClassBasic:SapClassBasic74.dll
 0001:00028138       ??1SapDataRGBA@@UAE@XZ     67da9138 f   SapClassBasic:SapClassBasic74.dll
 0001:0002813e       ?Red@SapDataRGBA@@QAEHXZ   67da913e f   SapClassBasic:SapClassBasic74.dll
 0001:00028144       ?Green@SapDataRGBA@@QAEHXZ 67da9144 f   SapClassBasic:SapClassBasic74.dll
 0001:0002814a       ?Blue@SapDataRGBA@@QAEHXZ  67da914a f   SapClassBasic:SapClassBasic74.dll
 0001:00028150       ??0SapDataRGBA@@QAE@XZ     67da9150 f   SapClassBasic:SapClassBasic74.dll
 0001:00028156       ??1SapDataYUV@@UAE@XZ      67da9156 f   SapClassBasic:SapClassBasic74.dll
 0001:0002815c       ?Y@SapDataYUV@@QAEHXZ      67da915c f   SapClassBasic:SapClassBasic74.dll
 0001:00028162       ?U@SapDataYUV@@QAEHXZ      67da9162 f   SapClassBasic:SapClassBasic74.dll
 0001:00028168       ?V@SapDataYUV@@QAEHXZ      67da9168 f   SapClassBasic:SapClassBasic74.dll
 0001:0002816e       ??0SapDataYUV@@QAE@XZ      67da916e f   SapClassBasic:SapClassBasic74.dll
 0001:00028174       ??1SapDataHSV@@UAE@XZ      67da9174 f   SapClassBasic:SapClassBasic74.dll
 0001:0002817a       ?H@SapDataHSV@@QAEHXZ      67da917a f   SapClassBasic:SapClassBasic74.dll
 0001:00028180       ?S@SapDataHSV@@QAEHXZ      67da9180 f   SapClassBasic:SapClassBasic74.dll
 0001:00028186       ?V@SapDataHSV@@QAEHXZ      67da9186 f   SapClassBasic:SapClassBasic74.dll
 0001:0002818c       ??0SapDataHSV@@QAE@XZ      67da918c f   SapClassBasic:SapClassBasic74.dll
 0001:00028192       ??1SapDataLABA@@UAE@XZ     67da9192 f   SapClassBasic:SapClassBasic74.dll
 0001:00028198       ?L@SapDataLABA@@QAEHXZ     67da9198 f   SapClassBasic:SapClassBasic74.dll
 0001:0002819e       ?A@SapDataLABA@@QAEHXZ     67da919e f   SapClassBasic:SapClassBasic74.dll
 0001:000281a4       ?B@SapDataLABA@@QAEHXZ     67da91a4 f   SapClassBasic:SapClassBasic74.dll
 0001:000281aa       ??0SapDataLABA@@QAE@XZ     67da91aa f   SapClassBasic:SapClassBasic74.dll
 0001:000281b0       ??1SapDataLAB@@UAE@XZ      67da91b0 f   SapClassBasic:SapClassBasic74.dll
 0001:000281b6       ?L@SapDataLAB@@QAEHXZ      67da91b6 f   SapClassBasic:SapClassBasic74.dll
 0001:000281bc       ?A@SapDataLAB@@QAEHXZ      67da91bc f   SapClassBasic:SapClassBasic74.dll
 0001:000281c2       ?B@SapDataLAB@@QAEHXZ      67da91c2 f   SapClassBasic:SapClassBasic74.dll
 0001:000281c8       ??0SapDataLAB@@QAE@XZ      67da91c8 f   SapClassBasic:SapClassBasic74.dll
 0001:000281ce       ??1SapDataHSI@@UAE@XZ      67da91ce f   SapClassBasic:SapClassBasic74.dll
 0001:000281d4       ?H@SapDataHSI@@QAEHXZ      67da91d4 f   SapClassBasic:SapClassBasic74.dll
 0001:000281da       ?S@SapDataHSI@@QAEHXZ      67da91da f   SapClassBasic:SapClassBasic74.dll
 0001:000281e0       ?I@SapDataHSI@@QAEHXZ      67da91e0 f   SapClassBasic:SapClassBasic74.dll
 0001:000281e6       ??0SapDataHSI@@QAE@XZ      67da91e6 f   SapClassBasic:SapClassBasic74.dll
 0001:000281ec       ?SetRefImage@SapPixProParams@@QAEXH@Z 67da91ec f   SapClassBasic:SapClassBasic74.dll
 0001:000281f2       ?SetBankId@SapPixProParams@@QAEXH@Z 67da91f2 f   SapClassBasic:SapClassBasic74.dll
 0001:000281f8       ??1SapPixPro@@UAE@XZ       67da91f8 f   SapClassBasic:SapClassBasic74.dll
 0001:000281fe       ??4SapPixPro@@QAEAAV0@ABV0@@Z 67da91fe f   SapClassBasic:SapClassBasic74.dll
 0001:00028204       ??0SapPixPro@@QAE@VSapLocation@@PBDPAVSapXferNode@@PAVSapPixProParams@@@Z 67da9204 f   SapClassBasic:SapClassBasic74.dll
 0001:0002820a       ??1SapPixProParams@@QAE@XZ 67da920a f   SapClassBasic:SapClassBasic74.dll
 0001:00028210       ?SetConfigIndex@SapPixProParams@@QAEXH@Z 67da9210 f   SapClassBasic:SapClassBasic74.dll
 0001:00028216       ?SetFunctionIndex@SapPixProParams@@QAEXH@Z 67da9216 f   SapClassBasic:SapClassBasic74.dll
 0001:0002821c       ?GetParams@SapPixPro@@QBEPBVSapPixProParams@@XZ 67da921c f   SapClassBasic:SapClassBasic74.dll
 0001:00028222       ?GetConfigIndex@SapPixProParams@@QBEHXZ 67da9222 f   SapClassBasic:SapClassBasic74.dll
 0001:00028228       ?GetFunctionIndex@SapPixProParams@@QBEHXZ 67da9228 f   SapClassBasic:SapClassBasic74.dll
 0001:0002822e       ?GetFile@SapPixPro@@QBEPBDXZ 67da922e f   SapClassBasic:SapClassBasic74.dll
 0001:00028234       ?GetFunctionInfo@SapPixPro@@QAEHHPAUCORPPL_FCT_PROP@@PADH@Z 67da9234 f   SapClassBasic:SapClassBasic74.dll
 0001:0002823a       ?GetConfigInfo@SapPixPro@@QAEHHPADH@Z 67da923a f   SapClassBasic:SapClassBasic74.dll
 0001:00028240       ?GetNumConfigs@SapPixPro@@QAEHXZ 67da9240 f   SapClassBasic:SapClassBasic74.dll
 0001:00028246       ?GetNumFunctions@SapPixPro@@QAEHXZ 67da9246 f   SapClassBasic:SapClassBasic74.dll
 0001:0002824c       ?ReadDesign@SapPixPro@@QAEHPAD@Z 67da924c f   SapClassBasic:SapClassBasic74.dll
 0001:00028252       ?SetIntegrateFactor@SapPixProParams@@QAEXH@Z 67da9252 f   SapClassBasic:SapClassBasic74.dll
 0001:00028258       ?SetIntegrateCount@SapPixProParams@@QAEXH@Z 67da9258 f   SapClassBasic:SapClassBasic74.dll
 0001:0002825e       ?SetWeightingFactor@SapPixProParams@@QAEXH@Z 67da925e f   SapClassBasic:SapClassBasic74.dll
 0001:00028264       ??1SapViewScaleParams@@QAE@XZ 67da9264 f   SapClassBasic:SapClassBasic74.dll
 0001:0002826a       ??3@YAXPAX@Z               67da926a f   mfc90d:mfc90d.dll
 0001:00028270       ??0CDialog@@QAE@IPAVCWnd@@@Z 67da9270 f   mfc90d:mfc90d.dll
 0001:00028276       ?GetRuntimeClass@CDialog@@UBEPAUCRuntimeClass@@XZ 67da9276 f   mfc90d:mfc90d.dll
 0001:0002827c       ?Serialize@CObject@@UAEXAAVCArchive@@@Z 67da927c f   mfc90d:mfc90d.dll
 0001:00028282       ?AssertValid@CDialog@@UBEXXZ 67da9282 f   mfc90d:mfc90d.dll
 0001:00028288       ?Dump@CDialog@@UBEXAAVCDumpContext@@@Z 67da9288 f   mfc90d:mfc90d.dll
 0001:0002828e       ?OnCmdMsg@CDialog@@UAEHIHPAXPAUAFX_CMDHANDLERINFO@@@Z 67da928e f   mfc90d:mfc90d.dll
 0001:00028294       ?OnFinalRelease@CWnd@@UAEXXZ 67da9294 f   mfc90d:mfc90d.dll
 0001:0002829a       ?IsInvokeAllowed@CCmdTarget@@UAEHJ@Z 67da929a f   mfc90d:mfc90d.dll
 0001:000282a0       ?GetDispatchIID@CCmdTarget@@UAEHPAU_GUID@@@Z 67da92a0 f   mfc90d:mfc90d.dll
 0001:000282a6       ?GetTypeInfoCount@CCmdTarget@@UAEIXZ 67da92a6 f   mfc90d:mfc90d.dll
 0001:000282ac       ?GetTypeLibCache@CCmdTarget@@UAEPAVCTypeLibCache@@XZ 67da92ac f   mfc90d:mfc90d.dll
 0001:000282b2       ?GetTypeLib@CCmdTarget@@UAEJKPAPAUITypeLib@@@Z 67da92b2 f   mfc90d:mfc90d.dll
 0001:000282b8       ?GetCommandMap@CCmdTarget@@MBEPBUAFX_OLECMDMAP@@XZ 67da92b8 f   mfc90d:mfc90d.dll
 0001:000282be       ?GetDispatchMap@CCmdTarget@@MBEPBUAFX_DISPMAP@@XZ 67da92be f   mfc90d:mfc90d.dll
 0001:000282c4       ?GetConnectionMap@CCmdTarget@@MBEPBUAFX_CONNECTIONMAP@@XZ 67da92c4 f   mfc90d:mfc90d.dll
 0001:000282ca       ?GetInterfaceMap@CWnd@@MBEPBUAFX_INTERFACEMAP@@XZ 67da92ca f   mfc90d:mfc90d.dll
 0001:000282d0       ?GetEventSinkMap@CCmdTarget@@MBEPBUAFX_EVENTSINKMAP@@XZ 67da92d0 f   mfc90d:mfc90d.dll
 0001:000282d6       ?OnCreateAggregates@CCmdTarget@@UAEHXZ 67da92d6 f   mfc90d:mfc90d.dll
 0001:000282dc       ?GetInterfaceHook@CCmdTarget@@UAEPAUIUnknown@@PBX@Z 67da92dc f   mfc90d:mfc90d.dll
 0001:000282e2       ?GetExtraConnectionPoints@CCmdTarget@@MAEHPAVCPtrArray@@@Z 67da92e2 f   mfc90d:mfc90d.dll
 0001:000282e8       ?GetConnectionHook@CCmdTarget@@MAEPAUIConnectionPoint@@ABU_GUID@@@Z 67da92e8 f   mfc90d:mfc90d.dll
 0001:000282ee       ?PreSubclassWindow@CWnd@@UAEXXZ 67da92ee f   mfc90d:mfc90d.dll
 0001:000282f4       ?Create@CWnd@@UAEHPBD0KABUtagRECT@@PAV1@IPAUCCreateContext@@@Z 67da92f4 f   mfc90d:mfc90d.dll
 0001:000282fa       ?CreateEx@CWnd@@UAEHKPBD0KABUtagRECT@@PAV1@IPAX@Z 67da92fa f   mfc90d:mfc90d.dll
 0001:00028300       ?CreateEx@CWnd@@UAEHKPBD0KHHHHPAUHWND__@@PAUHMENU__@@PAX@Z 67da9300 f   mfc90d:mfc90d.dll
 0001:00028306       ?DestroyWindow@CWnd@@UAEHXZ 67da9306 f   mfc90d:mfc90d.dll
 0001:0002830c       ?PreCreateWindow@CWnd@@UAEHAAUtagCREATESTRUCTA@@@Z 67da930c f   mfc90d:mfc90d.dll
 0001:00028312       ?CalcWindowRect@CWnd@@UAEXPAUtagRECT@@I@Z 67da9312 f   mfc90d:mfc90d.dll
 0001:00028318       ?GetMenu@CWnd@@UBEPAVCMenu@@XZ 67da9318 f   mfc90d:mfc90d.dll
 0001:0002831e       ?SetMenu@CWnd@@UAEHPAVCMenu@@@Z 67da931e f   mfc90d:mfc90d.dll
 0001:00028324       ?OnToolHitTest@CWnd@@UBEHVCPoint@@PAUtagTOOLINFOA@@@Z 67da9324 f   mfc90d:mfc90d.dll
 0001:0002832a       ?GetScrollBarCtrl@CWnd@@UBEPAVCScrollBar@@H@Z 67da932a f   mfc90d:mfc90d.dll
 0001:00028330       ?WinHelpA@CWnd@@UAEXKI@Z   67da9330 f   mfc90d:mfc90d.dll
 0001:00028336       ?HtmlHelpA@CWnd@@UAEXKI@Z  67da9336 f   mfc90d:mfc90d.dll
 0001:0002833c       ?WinHelpInternal@CWnd@@UAEXKI@Z 67da933c f   mfc90d:mfc90d.dll
 0001:00028342       ?ContinueModal@CWnd@@UAEHXZ 67da9342 f   mfc90d:mfc90d.dll
 0001:00028348       ?EndModalLoop@CWnd@@UAEXH@Z 67da9348 f   mfc90d:mfc90d.dll
 0001:0002834e       ?EnsureStdObj@CWnd@@UAEJXZ 67da934e f   mfc90d:mfc90d.dll
 0001:00028354       ?get_accParent@CWnd@@UAEJPAPAUIDispatch@@@Z 67da9354 f   mfc90d:mfc90d.dll
 0001:0002835a       ?get_accChildCount@CWnd@@UAEJPAJ@Z 67da935a f   mfc90d:mfc90d.dll
 0001:00028360       ?get_accChild@CWnd@@UAEJUtagVARIANT@@PAPAUIDispatch@@@Z 67da9360 f   mfc90d:mfc90d.dll
 0001:00028366       ?get_accName@CWnd@@UAEJUtagVARIANT@@PAPA_W@Z 67da9366 f   mfc90d:mfc90d.dll
 0001:0002836c       ?get_accValue@CWnd@@UAEJUtagVARIANT@@PAPA_W@Z 67da936c f   mfc90d:mfc90d.dll
 0001:00028372       ?get_accDescription@CWnd@@UAEJUtagVARIANT@@PAPA_W@Z 67da9372 f   mfc90d:mfc90d.dll
 0001:00028378       ?get_accRole@CWnd@@UAEJUtagVARIANT@@PAU2@@Z 67da9378 f   mfc90d:mfc90d.dll
 0001:0002837e       ?get_accState@CWnd@@UAEJUtagVARIANT@@PAU2@@Z 67da937e f   mfc90d:mfc90d.dll
 0001:00028384       ?get_accHelp@CWnd@@UAEJUtagVARIANT@@PAPA_W@Z 67da9384 f   mfc90d:mfc90d.dll
 0001:0002838a       ?get_accHelpTopic@CWnd@@UAEJPAPA_WUtagVARIANT@@PAJ@Z 67da938a f   mfc90d:mfc90d.dll
 0001:00028390       ?get_accKeyboardShortcut@CWnd@@UAEJUtagVARIANT@@PAPA_W@Z 67da9390 f   mfc90d:mfc90d.dll
 0001:00028396       ?get_accFocus@CWnd@@UAEJPAUtagVARIANT@@@Z 67da9396 f   mfc90d:mfc90d.dll
 0001:0002839c       ?get_accSelection@CWnd@@UAEJPAUtagVARIANT@@@Z 67da939c f   mfc90d:mfc90d.dll
 0001:000283a2       ?get_accDefaultAction@CWnd@@UAEJUtagVARIANT@@PAPA_W@Z 67da93a2 f   mfc90d:mfc90d.dll
 0001:000283a8       ?accSelect@CWnd@@UAEJJUtagVARIANT@@@Z 67da93a8 f   mfc90d:mfc90d.dll
 0001:000283ae       ?accLocation@CWnd@@UAEJPAJ000UtagVARIANT@@@Z 67da93ae f   mfc90d:mfc90d.dll
 0001:000283b4       ?accNavigate@CWnd@@UAEJJUtagVARIANT@@PAU2@@Z 67da93b4 f   mfc90d:mfc90d.dll
 0001:000283ba       ?accHitTest@CWnd@@UAEJJJPAUtagVARIANT@@@Z 67da93ba f   mfc90d:mfc90d.dll
 0001:000283c0       ?accDoDefaultAction@CWnd@@UAEJUtagVARIANT@@@Z 67da93c0 f   mfc90d:mfc90d.dll
 0001:000283c6       ?put_accName@CWnd@@UAEJUtagVARIANT@@PA_W@Z 67da93c6 f   mfc90d:mfc90d.dll
 0001:000283cc       ?put_accValue@CWnd@@UAEJUtagVARIANT@@PA_W@Z 67da93cc f   mfc90d:mfc90d.dll
 0001:000283d2       ?SetProxy@CWnd@@UAEJPAUIAccessibleProxy@@@Z 67da93d2 f   mfc90d:mfc90d.dll
 0001:000283d8       ?CreateAccessibleProxy@CWnd@@UAEJIJPAJ@Z 67da93d8 f   mfc90d:mfc90d.dll
 0001:000283de       ?OnCommand@CWnd@@MAEHIJ@Z  67da93de f   mfc90d:mfc90d.dll
 0001:000283e4       ?OnNotify@CWnd@@MAEHIJPAJ@Z 67da93e4 f   mfc90d:mfc90d.dll
 0001:000283ea       ?GetSuperWndProcAddr@CWnd@@MAEPAP6GJPAUHWND__@@IIJ@ZXZ 67da93ea f   mfc90d:mfc90d.dll
 0001:000283f0       ?BeginModalState@CWnd@@UAEXXZ 67da93f0 f   mfc90d:mfc90d.dll
 0001:000283f6       ?EndModalState@CWnd@@UAEXXZ 67da93f6 f   mfc90d:mfc90d.dll
 0001:000283fc       ?PreTranslateMessage@CDialog@@UAEHPAUtagMSG@@@Z 67da93fc f   mfc90d:mfc90d.dll
 0001:00028402       ?OnAmbientProperty@CWnd@@UAEHPAVCOleControlSite@@JPAUtagVARIANT@@@Z 67da9402 f   mfc90d:mfc90d.dll
 0001:00028408       ?WindowProc@CWnd@@MAEJIIJ@Z 67da9408 f   mfc90d:mfc90d.dll
 0001:0002840e       ?OnWndMsg@CWnd@@MAEHIIJPAJ@Z 67da940e f   mfc90d:mfc90d.dll
 0001:00028414       ?DefWindowProcA@CWnd@@MAEJIIJ@Z 67da9414 f   mfc90d:mfc90d.dll
 0001:0002841a       ?PostNcDestroy@CWnd@@MAEXXZ 67da941a f   mfc90d:mfc90d.dll
 0001:00028420       ?OnChildNotify@CWnd@@MAEHIIJPAJ@Z 67da9420 f   mfc90d:mfc90d.dll
 0001:00028426       ?CheckAutoCenter@CDialog@@UAEHXZ 67da9426 f   mfc90d:mfc90d.dll
 0001:0002842c       ?IsFrameWnd@CWnd@@UBEHXZ   67da942c f   mfc90d:mfc90d.dll
 0001:00028432       ?CreateControlContainer@CWnd@@MAEHPAPAVCOleControlContainer@@@Z 67da9432 f   mfc90d:mfc90d.dll
 0001:00028438       ?CreateControlSite@CWnd@@MAEHPAVCOleControlContainer@@PAPAVCOleControlSite@@IABU_GUID@@@Z 67da9438 f   mfc90d:mfc90d.dll
 0001:0002843e       ?SetOccDialogInfo@CDialog@@MAEHPAU_AFX_OCC_DIALOG_INFO@@@Z 67da943e f   mfc90d:mfc90d.dll
 0001:00028444       ?GetOccDialogInfo@CDialog@@MAEPAU_AFX_OCC_DIALOG_INFO@@XZ 67da9444 f   mfc90d:mfc90d.dll
 0001:0002844a       ?Create@CDialog@@UAEHIPAVCWnd@@@Z 67da944a f   mfc90d:mfc90d.dll
 0001:00028450       ?Create@CDialog@@UAEHPBDPAVCWnd@@@Z 67da9450 f   mfc90d:mfc90d.dll
 0001:00028456       ?CreateIndirect@CDialog@@UAEHPAXPAVCWnd@@@Z 67da9456 f   mfc90d:mfc90d.dll
 0001:0002845c       ?CreateIndirect@CDialog@@UAEHPBUDLGTEMPLATE@@PAVCWnd@@PAX@Z 67da945c f   mfc90d:mfc90d.dll
 0001:00028462       ?DoModal@CDialog@@UAEHXZ   67da9462 f   mfc90d:mfc90d.dll
 0001:00028468       ?OnSetFont@CDialog@@UAEXPAVCFont@@@Z 67da9468 f   mfc90d:mfc90d.dll
 0001:0002846e       ?OnOK@CDialog@@MAEXXZ      67da946e f   mfc90d:mfc90d.dll
 0001:00028474       ?OnCancel@CDialog@@MAEXXZ  67da9474 f   mfc90d:mfc90d.dll
 0001:0002847a       ?PreInitDialog@CDialog@@MAEXXZ 67da947a f   mfc90d:mfc90d.dll
 0001:00028480       ?DoDataExchange@CWnd@@MAEXPAVCDataExchange@@@Z 67da9480 f   mfc90d:mfc90d.dll
 0001:00028486       ?GetThisMessageMap@CDialog@@KGPBUAFX_MSGMAP@@XZ 67da9486 f   mfc90d:mfc90d.dll
 0001:0002848c       ?SetTimer@CWnd@@QAEIIIP6GXPAUHWND__@@IIK@Z@Z 67da948c f   mfc90d:mfc90d.dll
 0001:00028492       ?SetWindowPos@CWnd@@QAEHPBV1@HHHHI@Z 67da9492 f   mfc90d:mfc90d.dll
 0001:00028498       ?GetWindowRect@CWnd@@QBEXPAUtagRECT@@@Z 67da9498 f   mfc90d:mfc90d.dll
 0001:0002849e       ?OnInitDialog@CDialog@@UAEHXZ 67da949e f   mfc90d:mfc90d.dll
 0001:000284a4       ?KillTimer@CWnd@@QAEHI@Z   67da94a4 f   mfc90d:mfc90d.dll
 0001:000284aa       ?OnTimer@CWnd@@IAEXI@Z     67da94aa f   mfc90d:mfc90d.dll
 0001:000284b0       ??3CObject@@SGXPAX@Z       67da94b0 f   mfc90d:mfc90d.dll
 0001:000284b6       ??1CDialog@@UAE@XZ         67da94b6 f   mfc90d:mfc90d.dll
 0001:000284bc       ??_V@YAXPAX@Z              67da94bc f   mfc90d:mfc90d.dll
 0001:000284c2       ??1?$CStringT@DV?$StrTraitMFC_DLL@DV?$ChTraitsCRT@D@ATL@@@@@ATL@@QAE@XZ 67da94c2 f   mfc90d:mfc90d.dll
 0001:000284c8       ??1CListBox@@UAE@XZ        67da94c8 f   mfc90d:mfc90d.dll
 0001:000284ce       ??1CComboBox@@UAE@XZ       67da94ce f   mfc90d:mfc90d.dll
 0001:000284d4       ?AfxGetApp@@YGPAVCWinApp@@XZ 67da94d4 f   mfc90d:mfc90d.dll
 0001:000284da       ??0?$CStringT@DV?$StrTraitMFC_DLL@DV?$ChTraitsCRT@D@ATL@@@@@ATL@@QAE@XZ 67da94da f   mfc90d:mfc90d.dll
 0001:000284e0       ??0CListBox@@QAE@XZ        67da94e0 f   mfc90d:mfc90d.dll
 0001:000284e6       ??0CComboBox@@QAE@XZ       67da94e6 f   mfc90d:mfc90d.dll
 0001:000284ec       ??4?$CStringT@DV?$StrTraitMFC_DLL@DV?$ChTraitsCRT@D@ATL@@@@@ATL@@QAEAAV01@PBD@Z 67da94ec f   mfc90d:mfc90d.dll
 0001:000284f2       ??B?$CSimpleStringT@D$00@ATL@@QBEPBDXZ 67da94f2 f   mfc90d:mfc90d.dll
 0001:000284f8       ?GetProfileIntA@CWinApp@@QAEIPBD0H@Z 67da94f8 f   mfc90d:mfc90d.dll
 0001:000284fe       ??4?$CStringT@DV?$StrTraitMFC_DLL@DV?$ChTraitsCRT@D@ATL@@@@@ATL@@QAEAAV01@ABV01@@Z 67da94fe f   mfc90d:mfc90d.dll
 0001:00028504       ?GetProfileStringA@CWinApp@@QAE?AV?$CStringT@DV?$StrTraitMFC_DLL@DV?$ChTraitsCRT@D@ATL@@@@@ATL@@PBD00@Z 67da9504 f   mfc90d:mfc90d.dll
 0001:0002850a       ?WriteProfileInt@CWinApp@@QAEHPBD0H@Z 67da950a f   mfc90d:mfc90d.dll
 0001:00028510       ?WriteProfileStringA@CWinApp@@QAEHPBD00@Z 67da9510 f   mfc90d:mfc90d.dll
 0001:00028516       ?DDX_Check@@YGXPAVCDataExchange@@HAAH@Z 67da9516 f   mfc90d:mfc90d.dll
 0001:0002851c       ?DDX_CBIndex@@YGXPAVCDataExchange@@HAAH@Z 67da951c f   mfc90d:mfc90d.dll
 0001:00028522       ?DDX_CBString@@YGXPAVCDataExchange@@HAAV?$CStringT@DV?$StrTraitMFC_DLL@DV?$ChTraitsCRT@D@ATL@@@@@ATL@@@Z 67da9522 f   mfc90d:mfc90d.dll
 0001:00028528       ?DDX_Control@@YGXPAVCDataExchange@@HAAVCWnd@@@Z 67da9528 f   mfc90d:mfc90d.dll
 0001:0002852e       ?SetDlgItemTextA@CWnd@@QAEXHPBD@Z 67da952e f   mfc90d:mfc90d.dll
 0001:00028534       ?GetLBText@CComboBox@@QBEXHAAV?$CStringT@DV?$StrTraitMFC_DLL@DV?$ChTraitsCRT@D@ATL@@@@@ATL@@@Z 67da9534 f   mfc90d:mfc90d.dll
 0001:0002853a       ?SetCurSel@CComboBox@@QAEHH@Z 67da953a f   mfc90d:mfc90d.dll
 0001:00028540       ?SelectString@CComboBox@@QAEHHPBD@Z 67da9540 f   mfc90d:mfc90d.dll
 0001:00028546       ?SetItemData@CComboBox@@QAEHHK@Z 67da9546 f   mfc90d:mfc90d.dll
 0001:0002854c       ?GetCount@CComboBox@@QBEHXZ 67da954c f   mfc90d:mfc90d.dll
 0001:00028552       ?AddString@CComboBox@@QAEHPBD@Z 67da9552 f   mfc90d:mfc90d.dll
 0001:00028558       ?ResetContent@CComboBox@@QAEXXZ 67da9558 f   mfc90d:mfc90d.dll
 0001:0002855e       ?GetBuffer@?$CSimpleStringT@D$00@ATL@@QAEPADH@Z 67da955e f   mfc90d:mfc90d.dll
 0001:00028564       ??0?$CStringT@DV?$StrTraitMFC_DLL@DV?$ChTraitsCRT@D@ATL@@@@@ATL@@QAE@ABV01@@Z 67da9564 f   mfc90d:mfc90d.dll
 0001:0002856a       ?GetDlgItemTextA@CWnd@@QBEHHPADH@Z 67da956a f   mfc90d:mfc90d.dll
 0001:00028570       ?GetItemData@CComboBox@@QBEKH@Z 67da9570 f   mfc90d:mfc90d.dll
 0001:00028576       ?SetDroppedWidth@CComboBox@@QAEHI@Z 67da9576 f   mfc90d:mfc90d.dll
 0001:0002857c       ?GetTextMetricsA@CDC@@QBEHPAUtagTEXTMETRICA@@@Z 67da957c f   mfc90d:mfc90d.dll
 0001:00028582       ?GetFont@CWnd@@QBEPAVCFont@@XZ 67da9582 f   mfc90d:mfc90d.dll
 0001:00028588       ?GetDC@CWnd@@QAEPAVCDC@@XZ 67da9588 f   mfc90d:mfc90d.dll
 0001:0002858e       ?CompareNoCase@?$CStringT@DV?$StrTraitMFC_DLL@DV?$ChTraitsCRT@D@ATL@@@@@ATL@@QBEHPBD@Z 67da958e f   mfc90d:mfc90d.dll
 0001:00028594       ?GetText@CListBox@@QBEHHPAD@Z 67da9594 f   mfc90d:mfc90d.dll
 0001:0002859a       ?GetCount@CListBox@@QBEHXZ 67da959a f   mfc90d:mfc90d.dll
 0001:000285a0       ?ReleaseBuffer@?$CSimpleStringT@D$00@ATL@@QAEXH@Z 67da95a0 f   mfc90d:mfc90d.dll
 0001:000285a6       ?Dir@CListBox@@QAEHIPBD@Z  67da95a6 f   mfc90d:mfc90d.dll
 0001:000285ac       ?ResetContent@CListBox@@QAEXXZ 67da95ac f   mfc90d:mfc90d.dll
 0001:000285b2       ??_U@YAPAXIPBDH@Z          67da95b2 f   mfc90d:mfc90d.dll
 0001:000285b8       ?UpdateData@CWnd@@QAEHH@Z  67da95b8 f   mfc90d:mfc90d.dll
 0001:000285be       ?EnableWindow@CWnd@@QAEHH@Z 67da95be f   mfc90d:mfc90d.dll
 0001:000285c4       ?GetDlgItem@CWnd@@QBEPAV1@H@Z 67da95c4 f   mfc90d:mfc90d.dll
 0001:000285ca       ?GetCurSel@CComboBox@@QBEHXZ 67da95ca f   mfc90d:mfc90d.dll
 0001:000285d0       ?OnVScroll@CWnd@@IAEXIIPAVCScrollBar@@@Z 67da95d0 f   mfc90d:mfc90d.dll
 0001:000285d6       ?GetCheck@CButton@@QBEHXZ  67da95d6 f   mfc90d:mfc90d.dll
 0001:000285dc       ?SetCheck@CButton@@QAEXH@Z 67da95dc f   mfc90d:mfc90d.dll
 0001:000285e2       ?AfxMessageBox@@YGHPBDII@Z 67da95e2 f   mfc90d:mfc90d.dll
 0001:000285e8       ??1CScrollBar@@UAE@XZ      67da95e8 f   mfc90d:mfc90d.dll
 0001:000285ee       ??0CScrollBar@@QAE@XZ      67da95ee f   mfc90d:mfc90d.dll
 0001:000285f4       ?DDX_Text@@YGXPAVCDataExchange@@HAAH@Z 67da95f4 f   mfc90d:mfc90d.dll
 0001:000285fa       ?DDV_MinMaxInt@@YGXPAVCDataExchange@@HHH@Z 67da95fa f   mfc90d:mfc90d.dll
 0001:00028600       ?GetDlgCtrlID@CWnd@@QBEHXZ 67da9600 f   mfc90d:mfc90d.dll
 0001:00028606       ?DDX_Radio@@YGXPAVCDataExchange@@HAAH@Z 67da9606 f   mfc90d:mfc90d.dll
 0001:0002860c       ?DDX_Text@@YGXPAVCDataExchange@@HAAM@Z 67da960c f   mfc90d:mfc90d.dll
 0001:00028612       ?OnShowWindow@CWnd@@IAEXHI@Z 67da9612 f   mfc90d:mfc90d.dll
 0001:00028618       ??0?$CStringT@DV?$StrTraitMFC_DLL@DV?$ChTraitsCRT@D@ATL@@@@@ATL@@QAE@PBD@Z 67da9618 f   mfc90d:mfc90d.dll
 0001:0002861e       ?AfxFindResourceHandle@@YGPAUHINSTANCE__@@PBD0@Z 67da961e f   mfc90d:mfc90d.dll
 0001:00028624       ?Concatenate@?$CSimpleStringT@D$00@ATL@@KAXAAV12@PBDH1H@Z 67da9624 f   mfc90d:mfc90d.dll
 0001:0002862a       ?GetLength@?$CSimpleStringT@D$00@ATL@@QBEHXZ 67da962a f   mfc90d:mfc90d.dll
 0001:00028630       ??0?$CStringT@DV?$StrTraitMFC_DLL@DV?$ChTraitsCRT@D@ATL@@@@@ATL@@QAE@PAUIAtlStringMgr@1@@Z 67da9630 f   mfc90d:mfc90d.dll
 0001:00028636       ?GetManager@?$CStringT@DV?$StrTraitMFC_DLL@DV?$ChTraitsCRT@D@ATL@@@@@ATL@@QBEPAUIAtlStringMgr@2@XZ 67da9636 f   mfc90d:mfc90d.dll
 0001:0002863c       ?DDV_MinMaxUInt@@YGXPAVCDataExchange@@III@Z 67da963c f   mfc90d:mfc90d.dll
 0001:00028642       ??3@YAXPAXPBDH@Z           67da9642 f   mfc90d:mfc90d.dll
 0001:00028648       ??2@YAPAXIPBDH@Z           67da9648 f   mfc90d:mfc90d.dll
 0001:0002864e       ?DDV_MinMaxDWord@@YGXPAVCDataExchange@@KKK@Z 67da964e f   mfc90d:mfc90d.dll
 0001:00028654       ?IsWindowEnabled@CWnd@@QBEHXZ 67da9654 f   mfc90d:mfc90d.dll
 0001:0002865a       ?InsertItem@CTabCtrl@@QAEJHPBD@Z 67da965a f   mfc90d:mfc90d.dll
 0001:00028660       ?Format@?$CStringT@DV?$StrTraitMFC_DLL@DV?$ChTraitsCRT@D@ATL@@@@@ATL@@QAAXPBDZZ 67da9660 f   mfc90d:mfc90d.dll
 0001:00028666       ?MessageBoxA@CWnd@@QAEHPBD0I@Z 67da9666 f   mfc90d:mfc90d.dll
 0001:0002866c       ?GetCurSel@CTabCtrl@@QBEHXZ 67da966c f   mfc90d:mfc90d.dll
 0001:00028672       ?IsEmpty@?$CSimpleStringT@D$00@ATL@@QBE_NXZ 67da9672 f   mfc90d:mfc90d.dll
 0001:00028678       ?EndWaitCursor@CCmdTarget@@QAEXXZ 67da9678 f   mfc90d:mfc90d.dll
 0001:0002867e       ?BeginWaitCursor@CCmdTarget@@QAEXXZ 67da967e f   mfc90d:mfc90d.dll
 0001:00028684       ??Y?$CStringT@DV?$StrTraitMFC_DLL@DV?$ChTraitsCRT@D@ATL@@@@@ATL@@QAEAAV01@PBD@Z 67da9684 f   mfc90d:mfc90d.dll
 0001:0002868a       ?Replace@?$CStringT@DV?$StrTraitMFC_DLL@DV?$ChTraitsCRT@D@ATL@@@@@ATL@@QAEHPBD0@Z 67da968a f   mfc90d:mfc90d.dll
 0001:00028690       ?StringLength@?$CSimpleStringT@D$00@ATL@@SAHPBD@Z 67da9690 f   mfc90d:mfc90d.dll
 0001:00028696       ??1CSliderCtrl@@UAE@XZ     67da9696 f   mfc90d:mfc90d.dll
 0001:0002869c       ??0CSliderCtrl@@QAE@XZ     67da969c f   mfc90d:mfc90d.dll
 0001:000286a2       ?DDX_Text@@YGXPAVCDataExchange@@HAAJ@Z 67da96a2 f   mfc90d:mfc90d.dll
 0001:000286a8       ?CheckRadioButton@CWnd@@QAEXHHH@Z 67da96a8 f   mfc90d:mfc90d.dll
 0001:000286ae       ?SetPos@CSliderCtrl@@QAEXH@Z 67da96ae f   mfc90d:mfc90d.dll
 0001:000286b4       ?SetPageSize@CSliderCtrl@@QAEHH@Z 67da96b4 f   mfc90d:mfc90d.dll
 0001:000286ba       ?SetTicFreq@CSliderCtrl@@QAEXH@Z 67da96ba f   mfc90d:mfc90d.dll
 0001:000286c0       ?SetRange@CSliderCtrl@@QAEXHHH@Z 67da96c0 f   mfc90d:mfc90d.dll
 0001:000286c6       ?OnHScroll@CWnd@@IAEXIIPAVCScrollBar@@@Z 67da96c6 f   mfc90d:mfc90d.dll
 0001:000286cc       ??1CStatic@@UAE@XZ         67da96cc f   mfc90d:mfc90d.dll
 0001:000286d2       ??1CButton@@UAE@XZ         67da96d2 f   mfc90d:mfc90d.dll
 0001:000286d8       ??0CStatic@@QAE@XZ         67da96d8 f   mfc90d:mfc90d.dll
 0001:000286de       ??0CButton@@QAE@XZ         67da96de f   mfc90d:mfc90d.dll
 0001:000286e4       ?DDX_Text@@YGXPAVCDataExchange@@HAAV?$CStringT@DV?$StrTraitMFC_DLL@DV?$ChTraitsCRT@D@ATL@@@@@ATL@@@Z 67da96e4 f   mfc90d:mfc90d.dll
 0001:000286ea       ?Find@?$CStringT@DV?$StrTraitMFC_DLL@DV?$ChTraitsCRT@D@ATL@@@@@ATL@@QBEHPBDH@Z 67da96ea f   mfc90d:mfc90d.dll
 0001:000286f0       ?ShowWindow@CWnd@@QAEHH@Z  67da96f0 f   mfc90d:mfc90d.dll
 0001:000286f6       ?SetWindowTextA@CWnd@@QAEXPBD@Z 67da96f6 f   mfc90d:mfc90d.dll
 0001:000286fc       ?OnDestroy@CWnd@@IAEXXZ    67da96fc f   mfc90d:mfc90d.dll
 0001:00028702       ?GetParent@CWnd@@QBEPAV1@XZ 67da9702 f   mfc90d:mfc90d.dll
 0001:00028708       ?SetCurSel@CListBox@@QAEHH@Z 67da9708 f   mfc90d:mfc90d.dll
 0001:0002870e       ?AddString@CListBox@@QAEHPBD@Z 67da970e f   mfc90d:mfc90d.dll
 0001:00028714       ?ReleaseDC@CWnd@@QAEHPAVCDC@@@Z 67da9714 f   mfc90d:mfc90d.dll
 0001:0002871a       ?SetHorizontalExtent@CListBox@@QAEXH@Z 67da971a f   mfc90d:mfc90d.dll
 0001:00028720       ?GetHorizontalExtent@CListBox@@QBEHXZ 67da9720 f   mfc90d:mfc90d.dll
 0001:00028726       ?GetTextExtent@CDC@@QBE?AVCSize@@ABV?$CStringT@DV?$StrTraitMFC_DLL@DV?$ChTraitsCRT@D@ATL@@@@@ATL@@@Z 67da9726 f   mfc90d:mfc90d.dll
 0001:0002872c       ??Y?$CStringT@DV?$StrTraitMFC_DLL@DV?$ChTraitsCRT@D@ATL@@@@@ATL@@QAEAAV01@ABV?$CSimpleStringT@D$00@1@@Z 67da972c f   mfc90d:mfc90d.dll
 0001:00028732       ??1CFileDialog@@UAE@XZ     67da9732 f   mfc90d:mfc90d.dll
 0001:00028738       ??1CWaitCursor@@QAE@XZ     67da9738 f   mfc90d:mfc90d.dll
 0001:0002873e       ??0CWaitCursor@@QAE@XZ     67da973e f   mfc90d:mfc90d.dll
 0001:00028744       ?GetPathName@CFileDialog@@QBE?AV?$CStringT@DV?$StrTraitMFC_DLL@DV?$ChTraitsCRT@D@ATL@@@@@ATL@@XZ 67da9744 f   mfc90d:mfc90d.dll
 0001:0002874a       ?DoModal@CFileDialog@@UAEHXZ 67da974a f   mfc90d:mfc90d.dll
 0001:00028750       ??0CFileDialog@@QAE@HPBD0K0PAVCWnd@@KH@Z 67da9750 f   mfc90d:mfc90d.dll
 0001:00028756       ??0CBrush@@QAE@XZ          67da9756 f   mfc90d:mfc90d.dll
 0001:0002875c       ?MoveWindow@CWnd@@QAEXPBUtagRECT@@H@Z 67da975c f   mfc90d:mfc90d.dll
 0001:00028762       ?GetClientRect@CWnd@@QBEXPAUtagRECT@@@Z 67da9762 f   mfc90d:mfc90d.dll
 0001:00028768       ?GetLBText@CComboBox@@QBEHHPAD@Z 67da9768 f   mfc90d:mfc90d.dll
 0001:0002876e       ?GetSafeHandle@CGdiObject@@QBEPAXXZ 67da976e f   mfc90d:mfc90d.dll
 0001:00028774       ?OnCtlColor@CWnd@@IAEPAUHBRUSH__@@PAVCDC@@PAV1@I@Z 67da9774 f   mfc90d:mfc90d.dll
 0001:0002877a       ?SetButtonStyle@CButton@@QAEXIH@Z 67da977a f   mfc90d:mfc90d.dll
 0001:00028780       ?GetWindowTextA@CWnd@@QBEXAAV?$CStringT@DV?$StrTraitMFC_DLL@DV?$ChTraitsCRT@D@ATL@@@@@ATL@@@Z 67da9780 f   mfc90d:mfc90d.dll
 0001:00028786       ??1CBrush@@UAE@XZ          67da9786 f   mfc90d:mfc90d.dll
 0001:0002878c       ?RedrawWindow@CWnd@@QAEHPBUtagRECT@@PAVCRgn@@I@Z 67da978c f   mfc90d:mfc90d.dll
 0001:00028792       ?ModifyStyle@CWnd@@QAEHKKI@Z 67da9792 f   mfc90d:mfc90d.dll
 0001:00028798       ?InsertString@CComboBox@@QAEHHPBD@Z 67da9798 f   mfc90d:mfc90d.dll
 0001:0002879e       ??0CRectTracker@@QAE@XZ    67da979e f   mfc90d:mfc90d.dll
 0001:000287a4       ?DrawTrackerRect@CRectTracker@@UAEXPBUtagRECT@@PAVCWnd@@PAVCDC@@1@Z 67da97a4 f   mfc90d:mfc90d.dll
 0001:000287aa       ?OnChangedRect@CRectTracker@@UAEXABVCRect@@@Z 67da97aa f   mfc90d:mfc90d.dll
 0001:000287b0       ?GetHandleMask@CRectTracker@@UBEIXZ 67da97b0 f   mfc90d:mfc90d.dll
 0001:000287b6       ?GetHandleSize@CRectTracker@@MBEHPBUtagRECT@@@Z 67da97b6 f   mfc90d:mfc90d.dll
 0001:000287bc       ?GetScrollInfo@CWnd@@QAEHHPAUtagSCROLLINFO@@I@Z 67da97bc f   mfc90d:mfc90d.dll
 0001:000287c2       ?GetScrollInfo@CScrollBar@@QAEHPAUtagSCROLLINFO@@I@Z 67da97c2 f   mfc90d:mfc90d.dll
 0001:000287c8       ?SetScrollInfo@CWnd@@QAEHHPAUtagSCROLLINFO@@H@Z 67da97c8 f   mfc90d:mfc90d.dll
 0001:000287ce       ?SetScrollInfo@CScrollBar@@QAEHPAUtagSCROLLINFO@@H@Z 67da97ce f   mfc90d:mfc90d.dll
 0001:000287d4       ?FillSolidRect@CDC@@QAEXPBUtagRECT@@K@Z 67da97d4 f   mfc90d:mfc90d.dll
 0001:000287da       ?GetBkColor@CDC@@QBEKXZ    67da97da f   mfc90d:mfc90d.dll
 0001:000287e0       ?InvalidateRect@CWnd@@QAEXPBUtagRECT@@H@Z 67da97e0 f   mfc90d:mfc90d.dll
 0001:000287e6       ?MoveWindow@CWnd@@QAEXHHHHH@Z 67da97e6 f   mfc90d:mfc90d.dll
 0001:000287ec       ?ScreenToClient@CWnd@@QBEXPAUtagRECT@@@Z 67da97ec f   mfc90d:mfc90d.dll
 0001:000287f2       ?ShowScrollBar@CScrollBar@@QAEXH@Z 67da97f2 f   mfc90d:mfc90d.dll
 0001:000287f8       ??1CRgn@@UAE@XZ            67da97f8 f   mfc90d:mfc90d.dll
 0001:000287fe       ??1CClientDC@@UAE@XZ       67da97fe f   mfc90d:mfc90d.dll
 0001:00028804       ?Draw@CRectTracker@@QBEXPAVCDC@@@Z 67da9804 f   mfc90d:mfc90d.dll
 0001:0002880a       ?SetWindowOrg@CDC@@QAE?AVCPoint@@HH@Z 67da980a f   mfc90d:mfc90d.dll
 0001:00028810       ?SelectClipRgn@CDC@@QAEHPAVCRgn@@@Z 67da9810 f   mfc90d:mfc90d.dll
 0001:00028816       ??0CClientDC@@QAE@PAVCWnd@@@Z 67da9816 f   mfc90d:mfc90d.dll
 0001:0002881c       ?CreateRectRgnIndirect@CRgn@@QAEHPBUtagRECT@@@Z 67da981c f   mfc90d:mfc90d.dll
 0001:00028822       ??0CRgn@@QAE@XZ            67da9822 f   mfc90d:mfc90d.dll
 0001:00028828       ?Track@CRectTracker@@QAEHPAVCWnd@@VCPoint@@H0@Z 67da9828 f   mfc90d:mfc90d.dll
 0001:0002882e       ?TrackRubberBand@CRectTracker@@QAEHPAVCWnd@@VCPoint@@H@Z 67da982e f   mfc90d:mfc90d.dll
 0001:00028834       ?HitTest@CRectTracker@@QBEHVCPoint@@@Z 67da9834 f   mfc90d:mfc90d.dll
 0001:0002883a       ?SetCursor@CRectTracker@@QBEHPAVCWnd@@I@Z 67da983a f   mfc90d:mfc90d.dll
 0001:00028840       ?ScreenToClient@CWnd@@QBEXPAUtagPOINT@@@Z 67da9840 f   mfc90d:mfc90d.dll
 0001:00028846       ??1CRectTracker@@UAE@XZ    67da9846 f   mfc90d:mfc90d.dll
 0001:0002884c       ?GetThisInterfaceMap@CWnd@@KGPBUAFX_INTERFACEMAP@@XZ 67da984c f   mfc90d:mfc90d.dll
 0001:00028852       ?GetThisDispatchMap@CCmdTarget@@KGPBUAFX_DISPMAP@@XZ 67da9852 f   mfc90d:mfc90d.dll
 0001:00028858       ?DDX_Text@@YGXPAVCDataExchange@@HAAI@Z 67da9858 f   mfc90d:mfc90d.dll
 0001:0002885e       ?GetThisClass@CFileDialog@@SGPAUCRuntimeClass@@XZ 67da985e f   mfc90d:mfc90d.dll
 0001:00028864       ?Dump@CFileDialog@@UBEXAAVCDumpContext@@@Z 67da9864 f   mfc90d:mfc90d.dll
 0001:0002886a       ?GetInterfaceMap@CFileDialog@@MBEPBUAFX_INTERFACEMAP@@XZ 67da986a f   mfc90d:mfc90d.dll
 0001:00028870       ?OnNotify@CFileDialog@@MAEHIJPAJ@Z 67da9870 f   mfc90d:mfc90d.dll
 0001:00028876       ?OnOK@CCommonDialog@@MAEXXZ 67da9876 f   mfc90d:mfc90d.dll
 0001:0002887c       ?OnCancel@CCommonDialog@@MAEXXZ 67da987c f   mfc90d:mfc90d.dll
 0001:00028882       ?OnShareViolation@CFileDialog@@MAEIPBD@Z 67da9882 f   mfc90d:mfc90d.dll
 0001:00028888       ?OnFileNameOK@CFileDialog@@MAEHXZ 67da9888 f   mfc90d:mfc90d.dll
 0001:0002888e       ?OnLBSelChangedNotify@CFileDialog@@MAEXIII@Z 67da988e f   mfc90d:mfc90d.dll
 0001:00028894       ?OnInitDone@CFileDialog@@MAEXXZ 67da9894 f   mfc90d:mfc90d.dll
 0001:0002889a       ?OnFileNameChange@CFileDialog@@MAEXXZ 67da989a f   mfc90d:mfc90d.dll
 0001:000288a0       ?OnFolderChange@CFileDialog@@MAEXXZ 67da98a0 f   mfc90d:mfc90d.dll
 0001:000288a6       ?GetOFN@CFileDialog@@QAEAAUtagOFNA@@XZ 67da98a6 f   mfc90d:mfc90d.dll
 0001:000288ac       ?AfxAssertValidObject@@YGXPBVCObject@@PBDH@Z 67da98ac f   mfc90d:mfc90d.dll
 0001:000288b2       ?GetFileTitle@CFileDialog@@QBE?AV?$CStringT@DV?$StrTraitMFC_DLL@DV?$ChTraitsCRT@D@ATL@@@@@ATL@@XZ 67da98b2 f   mfc90d:mfc90d.dll
 0001:000288b8       ?GetForegroundWindow@CWnd@@SGPAV1@XZ 67da98b8 f   mfc90d:mfc90d.dll
 0001:000288be       ?GetThisMessageMap@CCommonDialog@@KGPBUAFX_MSGMAP@@XZ 67da98be f   mfc90d:mfc90d.dll
 0001:000288c4       ?AfxGetModuleState@@YGPAVAFX_MODULE_STATE@@XZ 67da98c4 f   mfc90d:mfc90d.dll
 0001:000288ca       ??3CObject@@SGXPAXPBDH@Z   67da98ca f   mfc90d:mfc90d.dll
 0001:000288d0       ??0CDynLinkLibrary@@QAE@AAUAFX_EXTENSION_MODULE@@H@Z 67da98d0 f   mfc90d:mfc90d.dll
 0001:000288d6       ??2CObject@@SGPAXIPBDH@Z   67da98d6 f   mfc90d:mfc90d.dll
 0001:000288dc       ?AfxTermExtensionModule@@YGXAAUAFX_EXTENSION_MODULE@@H@Z 67da98dc f   mfc90d:mfc90d.dll
 0001:000288e2       ?AfxInitExtensionModule@@YGHAAUAFX_EXTENSION_MODULE@@PAUHINSTANCE__@@@Z 67da98e2 f   mfc90d:mfc90d.dll
 0001:000288e8       ?AdjustRect@CRectTracker@@UAEXHPAUtagRECT@@@Z 67da98e8 f   mfc90d:mfc90d.dll
 0001:000288ee       ??1CSpinButtonCtrl@@UAE@XZ 67da98ee f   mfc90d:mfc90d.dll
 0001:000288f4       ?DDV_MinMaxFloat@@YGXPAVCDataExchange@@ABMMM@Z 67da98f4 f   mfc90d:mfc90d.dll
 0001:000288fa       ?DDX_Text@@YGXPAVCDataExchange@@HAAK@Z 67da98fa f   mfc90d:mfc90d.dll
 0001:00028900       ??0CSpinButtonCtrl@@QAE@XZ 67da9900 f   mfc90d:mfc90d.dll
 0001:00028910       ??_Estringdispid@CComTypeInfoHolder@ATL@@QAEPAXI@Z 67da9910 f i mfcs90d:nolib.obj
 0001:00028980       ??1stringdispid@CComTypeInfoHolder@ATL@@QAE@XZ 67da9980 f i mfcs90d:nolib.obj
 0001:000289a0       ??1CComBSTR@ATL@@QAE@XZ    67da99a0 f i mfcs90d:nolib.obj
 0001:000289c0       __RTC_CheckEsp             67da99c0 f   msvcrtd:_stack_.obj
 0001:000289f0       @_RTC_CheckStackVars@8     67da99f0 f   msvcrtd:_stack_.obj
 0001:00028a50       @_RTC_AllocaHelper@12      67da9a50 f   msvcrtd:_stack_.obj
 0001:00028a90       @_RTC_CheckStackVars2@12   67da9a90 f   msvcrtd:_stack_.obj
 0001:00028b70       __RTC_InitBase             67da9b70 f   msvcrtd:_init_.obj
 0001:00028ba0       __RTC_Shutdown             67da9ba0 f   msvcrtd:_init_.obj
 0001:00028bc0       ??0type_info@@AAE@ABV0@@Z  67da9bc0 f   msvcrtd:ti_inst.obj
 0001:00028be0       ??_Etype_info@@UAEPAXI@Z   67da9be0 f i msvcrtd:ti_inst.obj
 0001:00028c50       ??4type_info@@AAEAAV0@ABV0@@Z 67da9c50 f   msvcrtd:ti_inst.obj
 0001:00028c70       ??_M@YGXPAXIHP6EX0@Z@Z     67da9c70 f   msvcrtd:ehvecdtr.obj
 0001:00028d20       ?__ArrayUnwind@@YGXPAXIHP6EX0@Z@Z 67da9d20 f   msvcrtd:ehvecdtr.obj
 0001:00028dde       ___CxxFrameHandler3        67da9dde f   msvcrtd:MSVCR90D.dll
 0001:00028df0       @__security_check_cookie@4 67da9df0 f   msvcrtd:secchk.obj
 0001:00028e00       __splitpath_s              67da9e00 f   msvcrtd:MSVCR90D.dll
 0001:00028e06       _strlen                    67da9e06 f   msvcrtd:MSVCR90D.dll
 0001:00028e0c       _memset                    67da9e0c f   msvcrtd:MSVCR90D.dll
 0001:00028e12       _strstr                    67da9e12 f   msvcrtd:MSVCR90D.dll
 0001:00028e18       __stricmp                  67da9e18 f   msvcrtd:MSVCR90D.dll
 0001:00028e1e       _strrchr                   67da9e1e f   msvcrtd:MSVCR90D.dll
 0001:00028e24       __vsnprintf                67da9e24 f   msvcrtd:MSVCR90D.dll
 0001:00028e30       __ftol2_sse                67da9e30 f   msvcrtd:ftol2.obj
 0001:00028e39       __ftol2_pentium4           67da9e39 f   msvcrtd:ftol2.obj
 0001:00028e4c       __ftol2_sse_excpt          67da9e4c f   msvcrtd:ftol2.obj
 0001:00028e66       __ftol2                    67da9e66 f   msvcrtd:ftol2.obj
 0001:00028edc       _strcmp                    67da9edc f   msvcrtd:MSVCR90D.dll
 0001:00028ef0       __onexit                   67da9ef0 f   msvcrtd:atonexit.obj
 0001:00029000       _atexit                    67daa000 f   msvcrtd:atonexit.obj
 0001:0002901c       _floor                     67daa01c f   msvcrtd:MSVCR90D.dll
 0001:000290b0       __CRT_INIT@12              67daa0b0 f   msvcrtd:crtdll.obj
 0001:000293c0       _NtCurrentTeb              67daa3c0 f i msvcrtd:crtdll.obj
 0001:000293d0       __DllMainCRTStartup@12     67daa3d0 f   msvcrtd:crtdll.obj
 0001:000295d0       _DebuggerKnownHandle       67daa5d0 f   msvcrtd:_error_.obj
 0001:00029690       ?_RTC_Failure@@YAXPAXH@Z   67daa690 f   msvcrtd:_error_.obj
 0001:000299a0       ?_RTC_StackFailure@@YAXPAXPBD@Z 67daa9a0 f   msvcrtd:_error_.obj
 0001:00029aa0       ?_RTC_AllocaFailure@@YAXPAXPAU_RTC_ALLOCA_NODE@@H@Z 67daaaa0 f   msvcrtd:_error_.obj
 0001:00029c50       __RTC_UninitUse            67daac50 f   msvcrtd:_error_.obj
 0001:00029d40       __RTC_NumErrors            67daad40 f   msvcrtd:_userapi_.obj
 0001:00029d50       __RTC_GetErrDesc           67daad50 f   msvcrtd:_userapi_.obj
 0001:00029d70       __RTC_SetErrorType         67daad70 f   msvcrtd:_userapi_.obj
 0001:00029da0       __RTC_SetErrorFunc         67daada0 f   msvcrtd:_userapi_.obj
 0001:00029dc0       __RTC_SetErrorFuncW        67daadc0 f   msvcrtd:_userapi_.obj
 0001:00029de0       ?_RTC_GetErrorFunc@@YAP6AHHPBDH00ZZPBX@Z 67daade0 f   msvcrtd:_userapi_.obj
 0001:00029df0       ?_RTC_GetErrorFuncW@@YAP6AHHPB_WH00ZZPBX@Z 67daadf0 f   msvcrtd:_userapi_.obj
 0001:00029df6       __CRT_RTC_INITW            67daadf6 f   msvcrtd:MSVCR90D.dll
 0001:00029e00       __except_handler4          67daae00 f   msvcrtd:chandler4gs.obj
 0001:00029e2a       ?terminate@@YAXXZ          67daae2a f   msvcrtd:MSVCR90D.dll
 0001:00029e30       ___report_gsfailure        67daae30 f   msvcrtd:gs_report.obj
 0001:00029f40       __get_sse2_info            67daaf40 f   msvcrtd:cpu_disp.obj
 0001:0002a070       ___sse2_available_init     67dab070 f   msvcrtd:cpu_disp.obj
 0001:0002a084       __unlock                   67dab084 f   msvcrtd:MSVCR90D.dll
 0001:0002a08a       ___dllonexit               67dab08a f   msvcrtd:MSVCR90D.dll
 0001:0002a090       __encode_pointer           67dab090 f   msvcrtd:MSVCR90D.dll
 0001:0002a096       __lock                     67dab096 f   msvcrtd:MSVCR90D.dll
 0001:0002a09c       __decode_pointer           67dab09c f   msvcrtd:MSVCR90D.dll
 0001:0002a0b0       ___clean_type_info_names   67dab0b0 f   msvcrtd:tncleanup.obj
 0001:0002a0d0       __RTC_Initialize           67dab0d0 f   msvcrtd:_initsect_.obj
 0001:0002a100       __RTC_Terminate            67dab100 f   msvcrtd:_initsect_.obj
 0001:0002a126       __malloc_dbg               67dab126 f   msvcrtd:MSVCR90D.dll
 0001:0002a12c       __free_dbg                 67dab12c f   msvcrtd:MSVCR90D.dll
 0001:0002a132       __encoded_null             67dab132 f   msvcrtd:MSVCR90D.dll
 0001:0002a138       __CrtSetCheckCount         67dab138 f   msvcrtd:MSVCR90D.dll
 0001:0002a140       __ValidateImageBase        67dab140 f   msvcrtd:pesect.obj
 0001:0002a1a0       __FindPESection            67dab1a0 f   msvcrtd:pesect.obj
 0001:0002a220       __IsNonwritableInCurrentImage 67dab220 f   msvcrtd:pesect.obj
 0001:0002a332       __initterm                 67dab332 f   msvcrtd:MSVCR90D.dll
 0001:0002a338       __initterm_e               67dab338 f   msvcrtd:MSVCR90D.dll
 0001:0002a33e       __amsg_exit                67dab33e f   msvcrtd:MSVCR90D.dll
 0001:0002a350       ___security_init_cookie    67dab350 f   msvcrtd:gs_support.obj
 0001:0002a42c       ___CppXcptFilter           67dab42c f   msvcrtd:MSVCR90D.dll
 0001:0002a440       ?_RTC_GetSrcLine@@YAHPAEPA_WKPAH1K@Z 67dab440 f   msvcrtd:_pdblkup_.obj
 0001:0002a8d6       ??1type_info@@UAE@XZ       67dab8d6 f   msvcrtd:MSVCR90D.dll
 0001:0002a8d6       ?_type_info_dtor_internal_method@type_info@@QAEXXZ 67dab8d6 f   msvcrtd:MSVCR90D.dll
 0001:0002a8dc       __except_handler4_common   67dab8dc f   msvcrtd:MSVCR90D.dll
 0001:0002a8e2       __crt_debugger_hook        67dab8e2 f   msvcrtd:MSVCR90D.dll
 0001:0002a8e8       ___clean_type_info_names_internal 67dab8e8 f   msvcrtd:MSVCR90D.dll
 0001:0002a8ee       _GetTickCount@0            67dab8ee f   kernel32:KERNEL32.dll
 0001:0002a8f4       _GetEnvironmentVariableA@12 67dab8f4 f   kernel32:KERNEL32.dll
 0001:0002a8fa       _GetPrivateProfileStringA@24 67dab8fa f   kernel32:KERNEL32.dll
 0001:0002a900       _IsBadReadPtr@8            67dab900 f   kernel32:KERNEL32.dll
 0001:0002a906       _GetCurrentDirectoryA@8    67dab906 f   kernel32:KERNEL32.dll
 0001:0002a90c       _OpenFile@12               67dab90c f   kernel32:KERNEL32.dll
 0001:0002a912       _WaitForSingleObject@8     67dab912 f   kernel32:KERNEL32.dll
 0001:0002a918       _CreateProcessA@40         67dab918 f   kernel32:KERNEL32.dll
 0001:0002a91e       _GetStartupInfoA@4         67dab91e f   kernel32:KERNEL32.dll
 0001:0002a924       _Sleep@4                   67dab924 f   kernel32:KERNEL32.dll
 0001:0002a92a       _InterlockedExchange@8     67dab92a f   kernel32:KERNEL32.dll
 0001:0002a930       _InterlockedCompareExchange@12 67dab930 f   kernel32:KERNEL32.dll
 0001:0002a936       _IsDebuggerPresent@0       67dab936 f   kernel32:KERNEL32.dll
 0001:0002a93c       _RaiseException@16         67dab93c f   kernel32:KERNEL32.dll
 0001:0002a942       _DebugBreak@0              67dab942 f   kernel32:KERNEL32.dll
 0001:0002a948       _WideCharToMultiByte@32    67dab948 f   kernel32:KERNEL32.dll
 0001:0002a94e       _MultiByteToWideChar@24    67dab94e f   kernel32:KERNEL32.dll
 0001:0002a954       _lstrlenA@4                67dab954 f   kernel32:KERNEL32.dll
 0001:0002a95a       _GetProcAddress@8          67dab95a f   kernel32:KERNEL32.dll
 0001:0002a960       _LoadLibraryA@4            67dab960 f   kernel32:KERNEL32.dll
 0001:0002a966       _TerminateProcess@8        67dab966 f   kernel32:KERNEL32.dll
 0001:0002a96c       _GetCurrentProcess@0       67dab96c f   kernel32:KERNEL32.dll
 0001:0002a972       _UnhandledExceptionFilter@4 67dab972 f   kernel32:KERNEL32.dll
 0001:0002a978       _SetUnhandledExceptionFilter@4 67dab978 f   kernel32:KERNEL32.dll
 0001:0002a97e       _QueryPerformanceCounter@4 67dab97e f   kernel32:KERNEL32.dll
 0001:0002a984       _GetCurrentThreadId@0      67dab984 f   kernel32:KERNEL32.dll
 0001:0002a98a       _GetCurrentProcessId@0     67dab98a f   kernel32:KERNEL32.dll
 0001:0002a990       _GetSystemTimeAsFileTime@4 67dab990 f   kernel32:KERNEL32.dll
 0001:0002a996       _HeapFree@12               67dab996 f   kernel32:KERNEL32.dll
 0001:0002a99c       _HeapAlloc@12              67dab99c f   kernel32:KERNEL32.dll
 0001:0002a9a2       _GetProcessHeap@0          67dab9a2 f   kernel32:KERNEL32.dll
 0001:0002a9a8       _GetModuleFileNameW@12     67dab9a8 f   kernel32:KERNEL32.dll
 0001:0002a9ae       _VirtualQuery@12           67dab9ae f   kernel32:KERNEL32.dll
 0001:0002a9b4       _FreeLibrary@4             67dab9b4 f   kernel32:KERNEL32.dll
 0001:0002a9ba       _GetSystemMetrics@4        67dab9ba f   user32:USER32.dll
 0001:0002a9c0       _GetFocus@0                67dab9c0 f   user32:USER32.dll
 0001:0002a9c6       _SetDlgItemTextA@12        67dab9c6 f   user32:USER32.dll
 0001:0002a9cc       _SetForegroundWindow@4     67dab9cc f   user32:USER32.dll
 0001:0002a9d2       _IsIconic@4                67dab9d2 f   user32:USER32.dll
 0001:0002a9d8       _GetCursorPos@4            67dab9d8 f   user32:USER32.dll
 0001:0002a9de       _GetTextExtentPoint32A@16  67dab9de f   gdi32:GDI32.dll
 0001:0002a9e4       _GetSaveFileNameA@4        67dab9e4 f   comdlg32:COMDLG32.dll
 0001:0002a9ea       _SysFreeString@4           67dab9ea f   oleaut32:OLEAUT32.dll
 0001:0002a9f0       ??0CSize@@QAE@XZ           67dab9f0 f   atlsd:atltypes.obj
 0001:0002aa00       ??0CSize@@QAE@HH@Z         67daba00 f   atlsd:atltypes.obj
 0001:0002aa30       ??0CSize@@QAE@UtagSIZE@@@Z 67daba30 f   atlsd:atltypes.obj
 0001:0002aa50       ??0CSize@@QAE@UtagPOINT@@@Z 67daba50 f   atlsd:atltypes.obj
 0001:0002aa70       ??0CSize@@QAE@K@Z          67daba70 f   atlsd:atltypes.obj
 0001:0002aab0       ??8CSize@@QBEHUtagSIZE@@@Z 67dabab0 f   atlsd:atltypes.obj
 0001:0002aaf0       ??9CSize@@QBEHUtagSIZE@@@Z 67dabaf0 f   atlsd:atltypes.obj
 0001:0002ab30       ??YCSize@@QAEXUtagSIZE@@@Z 67dabb30 f   atlsd:atltypes.obj
 0001:0002ab60       ??ZCSize@@QAEXUtagSIZE@@@Z 67dabb60 f   atlsd:atltypes.obj
 0001:0002ab90       ?SetSize@CSize@@QAEXHH@Z   67dabb90 f   atlsd:atltypes.obj
 0001:0002abb0       ??HCSize@@QBE?AV0@UtagSIZE@@@Z 67dabbb0 f   atlsd:atltypes.obj
 0001:0002abe0       ??GCSize@@QBE?AV0@UtagSIZE@@@Z 67dabbe0 f   atlsd:atltypes.obj
 0001:0002ac10       ??GCSize@@QBE?AV0@XZ       67dabc10 f   atlsd:atltypes.obj
 0001:0002ac40       ??HCSize@@QBE?AVCPoint@@UtagPOINT@@@Z 67dabc40 f   atlsd:atltypes.obj
 0001:0002ac70       ??GCSize@@QBE?AVCPoint@@UtagPOINT@@@Z 67dabc70 f   atlsd:atltypes.obj
 0001:0002aca0       ??HCSize@@QBE?AVCRect@@PBUtagRECT@@@Z 67dabca0 f   atlsd:atltypes.obj
 0001:0002acf0       ??GCSize@@QBE?AVCRect@@PBUtagRECT@@@Z 67dabcf0 f   atlsd:atltypes.obj
 0001:0002ad40       ??0CPoint@@QAE@XZ          67dabd40 f   atlsd:atltypes.obj
 0001:0002ad50       ??0CPoint@@QAE@HH@Z        67dabd50 f   atlsd:atltypes.obj
 0001:0002ad80       ??0CPoint@@QAE@UtagPOINT@@@Z 67dabd80 f   atlsd:atltypes.obj
 0001:0002ada0       ??0CPoint@@QAE@UtagSIZE@@@Z 67dabda0 f   atlsd:atltypes.obj
 0001:0002adc0       ??0CPoint@@QAE@J@Z         67dabdc0 f   atlsd:atltypes.obj
 0001:0002ae00       ?Offset@CPoint@@QAEXHH@Z   67dabe00 f   atlsd:atltypes.obj
 0001:0002ae30       ?Offset@CPoint@@QAEXUtagPOINT@@@Z 67dabe30 f   atlsd:atltypes.obj
 0001:0002ae60       ?Offset@CPoint@@QAEXUtagSIZE@@@Z 67dabe60 f   atlsd:atltypes.obj
 0001:0002ae90       ?SetPoint@CPoint@@QAEXHH@Z 67dabe90 f   atlsd:atltypes.obj
 0001:0002aeb0       ??8CPoint@@QBEHUtagPOINT@@@Z 67dabeb0 f   atlsd:atltypes.obj
 0001:0002aef0       ??9CPoint@@QBEHUtagPOINT@@@Z 67dabef0 f   atlsd:atltypes.obj
 0001:0002af30       ??YCPoint@@QAEXUtagSIZE@@@Z 67dabf30 f   atlsd:atltypes.obj
 0001:0002af60       ??ZCPoint@@QAEXUtagSIZE@@@Z 67dabf60 f   atlsd:atltypes.obj
 0001:0002af90       ??YCPoint@@QAEXUtagPOINT@@@Z 67dabf90 f   atlsd:atltypes.obj
 0001:0002afc0       ??ZCPoint@@QAEXUtagPOINT@@@Z 67dabfc0 f   atlsd:atltypes.obj
 0001:0002aff0       ??HCPoint@@QBE?AV0@UtagSIZE@@@Z 67dabff0 f   atlsd:atltypes.obj
 0001:0002b020       ??GCPoint@@QBE?AV0@UtagSIZE@@@Z 67dac020 f   atlsd:atltypes.obj
 0001:0002b050       ??GCPoint@@QBE?AV0@XZ      67dac050 f   atlsd:atltypes.obj
 0001:0002b080       ??HCPoint@@QBE?AV0@UtagPOINT@@@Z 67dac080 f   atlsd:atltypes.obj
 0001:0002b0b0       ??GCPoint@@QBE?AVCSize@@UtagPOINT@@@Z 67dac0b0 f   atlsd:atltypes.obj
 0001:0002b0e0       ??HCPoint@@QBE?AVCRect@@PBUtagRECT@@@Z 67dac0e0 f   atlsd:atltypes.obj
 0001:0002b130       ??GCPoint@@QBE?AVCRect@@PBUtagRECT@@@Z 67dac130 f   atlsd:atltypes.obj
 0001:0002b180       ??0CRect@@QAE@XZ           67dac180 f   atlsd:atltypes.obj
 0001:0002b190       ??0CRect@@QAE@HHHH@Z       67dac190 f   atlsd:atltypes.obj
 0001:0002b1d0       ??0CRect@@QAE@ABUtagRECT@@@Z 67dac1d0 f   atlsd:atltypes.obj
 0001:0002b1f0       ??0CRect@@QAE@PBUtagRECT@@@Z 67dac1f0 f   atlsd:atltypes.obj
 0001:0002b210       ??0CRect@@QAE@UtagPOINT@@UtagSIZE@@@Z 67dac210 f   atlsd:atltypes.obj
 0001:0002b250       ??0CRect@@QAE@UtagPOINT@@0@Z 67dac250 f   atlsd:atltypes.obj
 0001:0002b290       ?Width@CRect@@QBEHXZ       67dac290 f   atlsd:atltypes.obj
 0001:0002b2b0       ?Height@CRect@@QBEHXZ      67dac2b0 f   atlsd:atltypes.obj
 0001:0002b2d0       ?Size@CRect@@QBE?AVCSize@@XZ 67dac2d0 f   atlsd:atltypes.obj
 0001:0002b310       ?TopLeft@CRect@@QAEAAVCPoint@@XZ 67dac310 f   atlsd:atltypes.obj
 0001:0002b320       ?BottomRight@CRect@@QAEAAVCPoint@@XZ 67dac320 f   atlsd:atltypes.obj
 0001:0002b340       ?TopLeft@CRect@@QBEABVCPoint@@XZ 67dac340 f   atlsd:atltypes.obj
 0001:0002b350       ?BottomRight@CRect@@QBEABVCPoint@@XZ 67dac350 f   atlsd:atltypes.obj
 0001:0002b370       ?CenterPoint@CRect@@QBE?AVCPoint@@XZ 67dac370 f   atlsd:atltypes.obj
 0001:0002b3b0       ?SwapLeftRight@CRect@@QAEXXZ 67dac3b0 f   atlsd:atltypes.obj
 0001:0002b3d0       ?SwapLeftRight@CRect@@SGXPAUtagRECT@@@Z 67dac3d0 f   atlsd:atltypes.obj
 0001:0002b400       ??BCRect@@QAEPAUtagRECT@@XZ 67dac400 f   atlsd:atltypes.obj
 0001:0002b410       ??BCRect@@QBEPBUtagRECT@@XZ 67dac410 f   atlsd:atltypes.obj
 0001:0002b420       ?IsRectEmpty@CRect@@QBEHXZ 67dac420 f   atlsd:atltypes.obj
 0001:0002b440       ?IsRectNull@CRect@@QBEHXZ  67dac440 f   atlsd:atltypes.obj
 0001:0002b490       ?PtInRect@CRect@@QBEHUtagPOINT@@@Z 67dac490 f   atlsd:atltypes.obj
 0001:0002b4c0       ?SetRect@CRect@@QAEXHHHH@Z 67dac4c0 f   atlsd:atltypes.obj
 0001:0002b4f0       ?SetRect@CRect@@QAEXUtagPOINT@@0@Z 67dac4f0 f   atlsd:atltypes.obj
 0001:0002b520       ?SetRectEmpty@CRect@@QAEXXZ 67dac520 f   atlsd:atltypes.obj
 0001:0002b540       ?CopyRect@CRect@@QAEXPBUtagRECT@@@Z 67dac540 f   atlsd:atltypes.obj
 0001:0002b560       ?EqualRect@CRect@@QBEHPBUtagRECT@@@Z 67dac560 f   atlsd:atltypes.obj
 0001:0002b580       ?InflateRect@CRect@@QAEXHH@Z 67dac580 f   atlsd:atltypes.obj
 0001:0002b5b0       ?InflateRect@CRect@@QAEXUtagSIZE@@@Z 67dac5b0 f   atlsd:atltypes.obj
 0001:0002b5e0       ?DeflateRect@CRect@@QAEXHH@Z 67dac5e0 f   atlsd:atltypes.obj
 0001:0002b610       ?DeflateRect@CRect@@QAEXUtagSIZE@@@Z 67dac610 f   atlsd:atltypes.obj
 0001:0002b640       ?OffsetRect@CRect@@QAEXHH@Z 67dac640 f   atlsd:atltypes.obj
 0001:0002b670       ?OffsetRect@CRect@@QAEXUtagPOINT@@@Z 67dac670 f   atlsd:atltypes.obj
 0001:0002b6a0       ?OffsetRect@CRect@@QAEXUtagSIZE@@@Z 67dac6a0 f   atlsd:atltypes.obj
 0001:0002b6d0       ?MoveToY@CRect@@QAEXH@Z    67dac6d0 f   atlsd:atltypes.obj
 0001:0002b700       ?MoveToX@CRect@@QAEXH@Z    67dac700 f   atlsd:atltypes.obj
 0001:0002b730       ?MoveToXY@CRect@@QAEXHH@Z  67dac730 f   atlsd:atltypes.obj
 0001:0002b760       ?MoveToXY@CRect@@QAEXUtagPOINT@@@Z 67dac760 f   atlsd:atltypes.obj
 0001:0002b790       ?IntersectRect@CRect@@QAEHPBUtagRECT@@0@Z 67dac790 f   atlsd:atltypes.obj
 0001:0002b7c0       ?UnionRect@CRect@@QAEHPBUtagRECT@@0@Z 67dac7c0 f   atlsd:atltypes.obj
 0001:0002b7f0       ??4CRect@@QAEXABUtagRECT@@@Z 67dac7f0 f   atlsd:atltypes.obj
 0001:0002b810       ??8CRect@@QBEHABUtagRECT@@@Z 67dac810 f   atlsd:atltypes.obj
 0001:0002b830       ??9CRect@@QBEHABUtagRECT@@@Z 67dac830 f   atlsd:atltypes.obj
 0001:0002b860       ??YCRect@@QAEXUtagPOINT@@@Z 67dac860 f   atlsd:atltypes.obj
 0001:0002b890       ??YCRect@@QAEXUtagSIZE@@@Z 67dac890 f   atlsd:atltypes.obj
 0001:0002b8c0       ??YCRect@@QAEXPBUtagRECT@@@Z 67dac8c0 f   atlsd:atltypes.obj
 0001:0002b8e0       ??ZCRect@@QAEXUtagPOINT@@@Z 67dac8e0 f   atlsd:atltypes.obj
 0001:0002b910       ??ZCRect@@QAEXUtagSIZE@@@Z 67dac910 f   atlsd:atltypes.obj
 0001:0002b940       ??ZCRect@@QAEXPBUtagRECT@@@Z 67dac940 f   atlsd:atltypes.obj
 0001:0002b960       ??_4CRect@@QAEXABUtagRECT@@@Z 67dac960 f   atlsd:atltypes.obj
 0001:0002b990       ??_5CRect@@QAEXABUtagRECT@@@Z 67dac990 f   atlsd:atltypes.obj
 0001:0002b9c0       ??HCRect@@QBE?AV0@UtagPOINT@@@Z 67dac9c0 f   atlsd:atltypes.obj
 0001:0002ba20       ??GCRect@@QBE?AV0@UtagPOINT@@@Z 67daca20 f   atlsd:atltypes.obj
 0001:0002ba80       ??HCRect@@QBE?AV0@UtagSIZE@@@Z 67daca80 f   atlsd:atltypes.obj
 0001:0002bae0       ??GCRect@@QBE?AV0@UtagSIZE@@@Z 67dacae0 f   atlsd:atltypes.obj
 0001:0002bb40       ??HCRect@@QBE?AV0@PBUtagRECT@@@Z 67dacb40 f   atlsd:atltypes.obj
 0001:0002bb90       ??GCRect@@QBE?AV0@PBUtagRECT@@@Z 67dacb90 f   atlsd:atltypes.obj
 0001:0002bbe0       ??ICRect@@QBE?AV0@ABUtagRECT@@@Z 67dacbe0 f   atlsd:atltypes.obj
 0001:0002bc30       ??UCRect@@QBE?AV0@ABUtagRECT@@@Z 67dacc30 f   atlsd:atltypes.obj
 0001:0002bc80       ?SubtractRect@CRect@@QAEHPBUtagRECT@@0@Z 67dacc80 f   atlsd:atltypes.obj
 0001:0002bcb0       ?NormalizeRect@CRect@@QAEXXZ 67daccb0 f   atlsd:atltypes.obj
 0001:0002bd20       ?InflateRect@CRect@@QAEXPBUtagRECT@@@Z 67dacd20 f   atlsd:atltypes.obj
 0001:0002bd80       ?InflateRect@CRect@@QAEXHHHH@Z 67dacd80 f   atlsd:atltypes.obj
 0001:0002bdd0       ?DeflateRect@CRect@@QAEXPBUtagRECT@@@Z 67dacdd0 f   atlsd:atltypes.obj
 0001:0002be30       ?DeflateRect@CRect@@QAEXHHHH@Z 67dace30 f   atlsd:atltypes.obj
 0001:0002be80       ?MulDiv@CRect@@QBE?AV1@HH@Z 67dace80 f   atlsd:atltypes.obj
 0001:0002bf00       ??0CAtlAllocator@@QAE@XZ   67dacf00 f i atlsd:Externs.obj
 0001:0002bf50       ??0CTraceSnapshot@@QAE@XZ  67dacf50 f i atlsd:Externs.obj
 0001:0002bf80       ??0?$CSimpleArray@UCModuleInfo@CTraceSnapshot@@V?$CSimpleArrayEqualHelper@UCModuleInfo@CTraceSnapshot@@@ATL@@@ATL@@QAE@XZ 67dacf80 f i atlsd:Externs.obj
 0001:0002bfb0       ??0?$CSimpleArray@KV?$CSimpleArrayEqualHelper@K@ATL@@@ATL@@QAE@XZ 67dacfb0 f i atlsd:Externs.obj
 0001:0002c100       ??0CAtlException@ATL@@QAE@J@Z 67dad100 f i atlsd:Externs.obj
 0001:0002c120       ?AtlCrtErrorCheck@ATL@@YAHH@Z 67dad120 f i atlsd:Externs.obj
 0001:0002c1e0       ?AtlThrowImpl@ATL@@YGXJ@Z  67dad1e0 f i atlsd:Externs.obj
 0001:0002c270       ??RCTraceFileAndLineInfo@ATL@@QBAXKIPBDZZ 67dad270 f i atlsd:Externs.obj
 0001:0002c2c0       ?_AtlRaiseException@ATL@@YAXKK@Z 67dad2c0 f i atlsd:Externs.obj
 0001:0002c2e0       ??0CTrace@ATL@@AAE@P6AHHPBDH00ZZ@Z 67dad2e0 f i atlsd:Externs.obj
 0001:0002c320       ??1CAtlAllocator@@QAE@XZ   67dad320 f i atlsd:Externs.obj
 0001:0002c340       ??1CTraceSnapshot@@QAE@XZ  67dad340 f i atlsd:Externs.obj
 0001:0002c360       ??1?$CSimpleArray@UCModuleInfo@CTraceSnapshot@@V?$CSimpleArrayEqualHelper@UCModuleInfo@CTraceSnapshot@@@ATL@@@ATL@@QAE@XZ 67dad360 f i atlsd:Externs.obj
 0001:0002c380       ??1?$CSimpleArray@KV?$CSimpleArrayEqualHelper@K@ATL@@@ATL@@QAE@XZ 67dad380 f i atlsd:Externs.obj
 0001:0002c3a0       ?RemoveAll@?$CSimpleArray@UCModuleInfo@CTraceSnapshot@@V?$CSimpleArrayEqualHelper@UCModuleInfo@CTraceSnapshot@@@ATL@@@ATL@@QAEXXZ 67dad3a0 f i atlsd:Externs.obj
 0001:0002c410       ?RemoveAll@?$CSimpleArray@KV?$CSimpleArrayEqualHelper@K@ATL@@@ATL@@QAEXXZ 67dad410 f i atlsd:Externs.obj
 0001:0002c480       ??1CTrace@ATL@@AAE@XZ      67dad480 f i atlsd:Externs.obj
 0001:0002c4a0       ??0CTraceCategory@ATL@@QAE@PBDI@Z 67dad4a0 f i atlsd:atltrace.obj
 0001:0002c4f0       ?ChangeCategory@CTrace@ATL@@QAE_NKIW4ATLTRACESTATUS@2@@Z 67dad4f0 f i atlsd:atltrace.obj
 0001:0002c520       ?RegisterCategory@CTrace@ATL@@QAEKPBD@Z 67dad520 f i atlsd:atltrace.obj
 0001:0002c540       ?NotifyTool@ATL@@YGXXZ     67dad540 f   atlsd:AtlDebugAPI.obj
 0001:0002c580       _AtlTraceRegister@8        67dad580 f   atlsd:AtlDebugAPI.obj
 0001:0002c600       _AtlTraceUnregister@4      67dad600 f   atlsd:AtlDebugAPI.obj
 0001:0002c630       _AtlTraceRegisterCategoryA@8 67dad630 f   atlsd:AtlDebugAPI.obj
 0001:0002c680       _AtlTraceRegisterCategoryU@8 67dad680 f   atlsd:AtlDebugAPI.obj
 0001:0002c6d0       _AtlTraceModifyProcess@20  67dad6d0 f   atlsd:AtlDebugAPI.obj
 0001:0002c770       ?GetProcess@CAtlAllocator@@QBEPAVCAtlTraceProcess@@XZ 67dad770 f i atlsd:AtlDebugAPI.obj
 0001:0002c790       _AtlTraceModifyModule@16   67dad790 f   atlsd:AtlDebugAPI.obj
 0001:0002c870       _AtlTraceModifyCategory@16 67dad870 f   atlsd:AtlDebugAPI.obj
 0001:0002c920       _AtlTraceGetProcess@20     67dad920 f   atlsd:AtlDebugAPI.obj
 0001:0002c9f0       _AtlTraceGetModule@16      67dad9f0 f   atlsd:AtlDebugAPI.obj
 0001:0002cb00       _AtlTraceGetCategory@16    67dadb00 f   atlsd:AtlDebugAPI.obj
 0001:0002cbe0       _AtlTraceGetUpdateEventNameA@4 67dadbe0 f   atlsd:AtlDebugAPI.obj
 0001:0002cc10       _AtlTraceGetUpdateEventNameA_s@8 67dadc10 f   atlsd:AtlDebugAPI.obj
 0001:0002cc40       _AtlTraceGetUpdateEventNameU@4 67dadc40 f   atlsd:AtlDebugAPI.obj
 0001:0002cca0       _AtlTraceGetUpdateEventNameU_s@8 67dadca0 f   atlsd:AtlDebugAPI.obj
 0001:0002cd00       _AtlTraceVA                67dadd00 f   atlsd:AtlDebugAPI.obj
 0001:0002d020       ?Name@CAtlTraceCategory@@QBEPB_WXZ 67dae020 f i atlsd:AtlDebugAPI.obj
 0001:0002d040       _AtlTraceVU                67dae040 f   atlsd:AtlDebugAPI.obj
 0001:0002d390       _AtlTraceOpenProcess@4     67dae390 f   atlsd:AtlDebugAPI.obj
 0001:0002d490       ??_GCAtlAllocator@@QAEPAXI@Z 67dae490 f i atlsd:AtlDebugAPI.obj
 0001:0002d4c0       _AtlTraceCloseProcess@4    67dae4c0 f   atlsd:AtlDebugAPI.obj
 0001:0002d550       _AtlTraceSnapshotProcess@4 67dae550 f   atlsd:AtlDebugAPI.obj
 0001:0002d5c0       _AtlTraceGetProcessInfo@8  67dae5c0 f   atlsd:AtlDebugAPI.obj
 0001:0002d760       ?Path@CAtlTraceModuleInfo@@QBEPB_WXZ 67dae760 f i atlsd:AtlDebugAPI.obj
 0001:0002d780       ?Name@CAtlTraceModuleInfo@@QBEPB_WXZ 67dae780 f i atlsd:AtlDebugAPI.obj
 0001:0002d7a0       ?Id@CAtlTraceProcess@@QBEKXZ 67dae7a0 f i atlsd:AtlDebugAPI.obj
 0001:0002d7c0       _AtlTraceGetModuleInfo@12  67dae7c0 f   atlsd:AtlDebugAPI.obj
 0001:0002d960       _AtlTraceGetCategoryInfo@16 67dae960 f   atlsd:AtlDebugAPI.obj
 0001:0002dce0       ?CrtDbgReport@CAtlTraceModule@@QBEP6AHHPBDH00ZZXZ 67daece0 f i atlsd:AtlDebugAPI.obj
 0001:0002dd00       ?_IsTracingEnabled@ATL@@YA_NKKI@Z 67daed00 f   atlsd:AtlDebugAPI.obj
 0001:0002dd40       ?GetSize@?$CSimpleArray@UCModuleInfo@CTraceSnapshot@@V?$CSimpleArrayEqualHelper@UCModuleInfo@CTraceSnapshot@@@ATL@@@ATL@@QBEHXZ 67daed40 f i atlsd:AtlDebugAPI.obj
 0001:0002dd60       ??A?$CSimpleArray@UCModuleInfo@CTraceSnapshot@@V?$CSimpleArrayEqualHelper@UCModuleInfo@CTraceSnapshot@@@ATL@@@ATL@@QAEAAUCModuleInfo@CTraceSnapshot@@H@Z 67daed60 f i atlsd:AtlDebugAPI.obj
 0001:0002ddd0       ?strcpy_s@Checked@ATL@@YAXPADIPBD@Z 67daedd0 f i atlsd:AtlDebugAPI.obj
 0001:0002de00       ?wcscpy_s@Checked@ATL@@YAXPA_WIPB_W@Z 67daee00 f i atlsd:AtlDebugAPI.obj
 0001:0002de30       ??0?$CA2WEX@$0IA@@ATL@@QAE@PBD@Z 67daee30 f i atlsd:AtlDebugAPI.obj
 0001:0002de60       ?_AtlGetConversionACP@ATL@@YGIXZ 67daee60 f i atlsd:AtlDebugAPI.obj
 0001:0002de70       ??1?$CA2WEX@$0IA@@ATL@@QAE@XZ 67daee70 f i atlsd:AtlDebugAPI.obj
 0001:0002dea0       ??B?$CA2WEX@$0IA@@ATL@@QBEPA_WXZ 67daeea0 f i atlsd:AtlDebugAPI.obj
 0001:0002dec0       ?Init@?$CA2WEX@$0IA@@ATL@@AAEXPBDI@Z 67daeec0 f i atlsd:AtlDebugAPI.obj
 0001:0002dfc0       ?AtlThrowLastWin32@ATL@@YGXXZ 67daefc0 f i atlsd:AtlDebugAPI.obj
 0001:0002dff0       _HRESULT_FROM_WIN32        67daeff0 f i atlsd:AtlDebugAPI.obj
 0001:0002e030       ??$AtlConvFreeMemory@_W@ATL@@YAXPA_W0H@Z 67daf030 f i atlsd:AtlDebugAPI.obj
 0001:0002e070       ??$AtlConvAllocMemory@_W@ATL@@YAXPAPA_WHPA_WH@Z 67daf070 f i atlsd:AtlDebugAPI.obj
 0001:0002e1e0       ?Init@CAtlAllocator@@QAE_NPBDK@Z 67daf1e0 f   atlsd:Allocate.obj
 0001:0002e510       ?IncRef@CAtlTraceProcess@@QAEIXZ 67daf510 f i atlsd:Allocate.obj
 0001:0002e540       ?Base@CAtlTraceProcess@@QBEPAXXZ 67daf540 f i atlsd:Allocate.obj
 0001:0002e560       ?Open@CAtlAllocator@@QAE_NPBD@Z 67daf560 f   atlsd:Allocate.obj
 0001:0002e6a0       ?Close@CAtlAllocator@@QAEX_N@Z 67daf6a0 f   atlsd:Allocate.obj
 0001:0002e710       ?DecRef@CAtlTraceProcess@@QAEIXZ 67daf710 f i atlsd:Allocate.obj
 0001:0002e740       ?GetModule@CAtlAllocator@@QBEPAVCAtlTraceModule@@H@Z 67daf740 f   atlsd:Allocate.obj
 0001:0002e7d0       ?ModuleCount@CAtlTraceProcess@@QBEHXZ 67daf7d0 f i atlsd:Allocate.obj
 0001:0002e7f0       ?GetCategory@CAtlAllocator@@QBEPAVCAtlTraceCategory@@H@Z 67daf7f0 f   atlsd:Allocate.obj
 0001:0002e890       ?MaxSize@CAtlTraceProcess@@QBEKXZ 67daf890 f i atlsd:Allocate.obj
 0001:0002e8b0       ?CategoryCount@CAtlTraceProcess@@QBEHXZ 67daf8b0 f i atlsd:Allocate.obj
 0001:0002e8d0       ?GetCategoryCount@CAtlAllocator@@QBEHH@Z 67daf8d0 f   atlsd:Allocate.obj
 0001:0002e940       ?GetCategoryCount@CAtlAllocator@@QBEHABVCAtlTraceModule@@@Z 67daf940 f   atlsd:Allocate.obj
 0001:0002e9a0       ?GetModuleCount@CAtlAllocator@@QBEHXZ 67daf9a0 f   atlsd:Allocate.obj
 0001:0002e9f0       ?FindModule@CAtlAllocator@@QBE_NPB_WPAI@Z 67daf9f0 f   atlsd:Allocate.obj
 0001:0002ea60       ?AddModule@CAtlAllocator@@QAEHPAUHINSTANCE__@@@Z 67dafa60 f   atlsd:Allocate.obj
 0001:0002ec20       ?TryAllocate@CAtlTraceSettings@@QAE_NXZ 67dafc20 f i atlsd:Allocate.obj
 0001:0002ec60       ?MarkValid@CAtlTraceSettings@@QAEXJ@Z 67dafc60 f i atlsd:Allocate.obj
 0001:0002eca0       ?IncModuleCount@CAtlTraceProcess@@QAEXI@Z 67dafca0 f i atlsd:Allocate.obj
 0001:0002ecd0       ?AddCategory@CAtlAllocator@@QAEHHPB_W@Z 67dafcd0 f   atlsd:Allocate.obj
 0001:0002eef0       ?TryAddRef@CAtlTraceSettings@@QAE_NXZ 67dafef0 f i atlsd:Allocate.obj
 0001:0002ef30       ?Release@CAtlTraceSettings@@QAEXXZ 67daff30 f i atlsd:Allocate.obj
 0001:0002ef60       ?IncCategoryCount@CAtlTraceProcess@@QAEXI@Z 67daff60 f i atlsd:Allocate.obj
 0001:0002ef90       ?RemoveModule@CAtlAllocator@@QAE_NH@Z 67daff90 f   atlsd:Allocate.obj
 0001:0002f030       ?CleanUp@CAtlAllocator@@QAEXXZ 67db0030 f   atlsd:Allocate.obj
 0001:0002f050       ?TakeSnapshot@CAtlAllocator@@QAEXXZ 67db0050 f   atlsd:Allocate.obj
 0001:0002f210       ?ReleaseSnapshot@CAtlAllocator@@QAEXXZ 67db0210 f   atlsd:Allocate.obj
 0001:0002f2e0       ?Add@?$CSimpleArray@UCModuleInfo@CTraceSnapshot@@V?$CSimpleArrayEqualHelper@UCModuleInfo@CTraceSnapshot@@@ATL@@@ATL@@QAEHABUCModuleInfo@CTraceSnapshot@@@Z 67db02e0 f i atlsd:Allocate.obj
 0001:0002f400       ?GetSize@?$CSimpleArray@KV?$CSimpleArrayEqualHelper@K@ATL@@@ATL@@QBEHXZ 67db0400 f i atlsd:Allocate.obj
 0001:0002f420       ?Add@?$CSimpleArray@KV?$CSimpleArrayEqualHelper@K@ATL@@@ATL@@QAEHABK@Z 67db0420 f i atlsd:Allocate.obj
 0001:0002f540       ?RemoveAt@?$CSimpleArray@KV?$CSimpleArrayEqualHelper@K@ATL@@@ATL@@QAEHH@Z 67db0540 f i atlsd:Allocate.obj
 0001:0002f600       ??A?$CSimpleArray@KV?$CSimpleArrayEqualHelper@K@ATL@@@ATL@@QAEAAKH@Z 67db0600 f i atlsd:Allocate.obj
 0001:0002f670       ?InternalSetAtIndex@?$CSimpleArray@UCModuleInfo@CTraceSnapshot@@V?$CSimpleArrayEqualHelper@UCModuleInfo@CTraceSnapshot@@@ATL@@@ATL@@QAEXHABUCModuleInfo@CTraceSnapshot@@@Z 67db0670 f i atlsd:Allocate.obj
 0001:0002f6c0       ?InternalSetAtIndex@?$CSimpleArray@KV?$CSimpleArrayEqualHelper@K@ATL@@@ATL@@QAEXHABK@Z 67db06c0 f i atlsd:Allocate.obj
 0001:0002f710       ??0Wrapper@?$CSimpleArray@UCModuleInfo@CTraceSnapshot@@V?$CSimpleArrayEqualHelper@UCModuleInfo@CTraceSnapshot@@@ATL@@@ATL@@QAE@ABUCModuleInfo@CTraceSnapshot@@@Z 67db0710 f i atlsd:Allocate.obj
 0001:0002f740       ??0Wrapper@?$CSimpleArray@KV?$CSimpleArrayEqualHelper@K@ATL@@@ATL@@QAE@ABK@Z 67db0740 f i atlsd:Allocate.obj
 0001:0002f760       ??$?2UCModuleInfo@CTraceSnapshot@@@Wrapper@?$CSimpleArray@UCModuleInfo@CTraceSnapshot@@V?$CSimpleArrayEqualHelper@UCModuleInfo@CTraceSnapshot@@@ATL@@@ATL@@SAPAXIPAUCModuleInfo@CTraceSnapshot@@@Z 67db0760 f i atlsd:Allocate.obj
 0001:0002f770       ??$?2K@Wrapper@?$CSimpleArray@KV?$CSimpleArrayEqualHelper@K@ATL@@@ATL@@SAPAXIPAK@Z 67db0770 f i atlsd:Allocate.obj
 0001:0002f780       ?memmove_s@Checked@ATL@@YAXPAXIPBXI@Z 67db0780 f i atlsd:Allocate.obj
 0001:0002f7b0       ??2@YAPAXIPAX@Z            67db07b0 f i atlsd:Allocate.obj
 0001:0002f7c0       ??0CAtlTraceModuleInfo@@QAE@XZ 67db07c0 f   atlsd:AtlTraceModuleManager.obj
 0001:0002f810       ?Reset@CAtlTraceModuleInfo@@QAEXPAUHINSTANCE__@@@Z 67db0810 f   atlsd:AtlTraceModuleManager.obj
 0001:0002f950       ??0CAtlTraceCategory@@QAE@XZ 67db0950 f   atlsd:AtlTraceModuleManager.obj
 0001:0002f990       ??0CAtlTraceSettings@@QAE@XZ 67db0990 f i atlsd:AtlTraceModuleManager.obj
 0001:0002f9d0       ?Reset@CAtlTraceCategory@@QAEXPB_WJ@Z 67db09d0 f   atlsd:AtlTraceModuleManager.obj
 0001:0002fa20       ??0CAtlTraceModule@@QAE@XZ 67db0a20 f   atlsd:AtlTraceModuleManager.obj
 0001:0002fa60       ?CrtDbgReport@CAtlTraceModule@@QAEXP6AHHPBDH00ZZ@Z 67db0a60 f   atlsd:AtlTraceModuleManager.obj
 0001:0002faa0       ??0CAtlTraceProcess@@QAE@K@Z 67db0aa0 f   atlsd:AtlTraceModuleManager.obj
 0001:0002fb70       ?GetNextCookie@CAtlTraceProcess@@QAEJXZ 67db0b70 f   atlsd:AtlTraceModuleManager.obj
 0001:0002fb8c       ??2@YAPAXI@Z               67db0b8c f   mfc90d:mfc90d.dll
 0001:0002fb92       __snprintf_s               67db0b92 f   msvcrtd:MSVCR90D.dll
 0001:0002fb98       __errno                    67db0b98 f   msvcrtd:MSVCR90D.dll
 0001:0002fb9e       __CxxThrowException@8      67db0b9e f   msvcrtd:MSVCR90D.dll
 0001:0002fba4       __CrtDbgReportW            67db0ba4 f   msvcrtd:MSVCR90D.dll
 0001:0002fbaa       __CrtDbgReport             67db0baa f   msvcrtd:MSVCR90D.dll
 0001:0002fbb0       _free                      67db0bb0 f   msvcrtd:MSVCR90D.dll
 0001:0002fbb6       _strcpy                    67db0bb6 f   msvcrtd:MSVCR90D.dll
 0001:0002fbbc       _wcscpy                    67db0bbc f   msvcrtd:MSVCR90D.dll
 0001:0002fbc2       __vsnprintf_s              67db0bc2 f   msvcrtd:MSVCR90D.dll
 0001:0002fbc8       __vsnwprintf_s             67db0bc8 f   msvcrtd:MSVCR90D.dll
 0001:0002fbce       __snwprintf_s              67db0bce f   msvcrtd:MSVCR90D.dll
 0001:0002fbd4       _wcscpy_s                  67db0bd4 f   msvcrtd:MSVCR90D.dll
 0001:0002fbda       _wcsncpy_s                 67db0bda f   msvcrtd:MSVCR90D.dll
 0001:0002fbe0       _strcpy_s                  67db0be0 f   msvcrtd:MSVCR90D.dll
 0001:0002fbe6       _calloc                    67db0be6 f   msvcrtd:MSVCR90D.dll
 0001:0002fbec       __recalloc                 67db0bec f   msvcrtd:MSVCR90D.dll
 0001:0002fbf2       _memcmp                    67db0bf2 f   msvcrtd:MSVCR90D.dll
 0001:0002fbf8       __wcsicmp                  67db0bf8 f   msvcrtd:MSVCR90D.dll
 0001:0002fbfe       _memmove_s                 67db0bfe f   msvcrtd:MSVCR90D.dll
 0001:0002fc04       _wcslen                    67db0c04 f   msvcrtd:MSVCR90D.dll
 0001:0002fc0a       _MulDiv@12                 67db0c0a f   kernel32:KERNEL32.dll
 0001:0002fc10       _CloseHandle@4             67db0c10 f   kernel32:KERNEL32.dll
 0001:0002fc16       _SetEvent@4                67db0c16 f   kernel32:KERNEL32.dll
 0001:0002fc1c       _OpenEventA@12             67db0c1c f   kernel32:KERNEL32.dll
 0001:0002fc22       _OutputDebugStringA@4      67db0c22 f   kernel32:KERNEL32.dll
 0001:0002fc28       _OutputDebugStringW@4      67db0c28 f   kernel32:KERNEL32.dll
 0001:0002fc2e       _GetLastError@0            67db0c2e f   kernel32:KERNEL32.dll
 0001:0002fc34       _VirtualAlloc@16           67db0c34 f   kernel32:KERNEL32.dll
 0001:0002fc3a       _UnmapViewOfFile@4         67db0c3a f   kernel32:KERNEL32.dll
 0001:0002fc40       _GetSystemInfo@4           67db0c40 f   kernel32:KERNEL32.dll
 0001:0002fc46       _MapViewOfFile@20          67db0c46 f   kernel32:KERNEL32.dll
 0001:0002fc4c       _CreateFileMappingA@24     67db0c4c f   kernel32:KERNEL32.dll
 0001:0002fc52       _GetCurrentThread@0        67db0c52 f   kernel32:KERNEL32.dll
 0001:0002fc58       _OpenFileMappingA@12       67db0c58 f   kernel32:KERNEL32.dll
 0001:0002fc5e       _InterlockedIncrement@4    67db0c5e f   kernel32:KERNEL32.dll
 0001:0002fc64       _InterlockedDecrement@4    67db0c64 f   kernel32:KERNEL32.dll
 0001:0002fc6a       _CopyRect@8                67db0c6a f   user32:USER32.dll
 0001:0002fc70       _IsRectEmpty@4             67db0c70 f   user32:USER32.dll
 0001:0002fc76       _PtInRect@12               67db0c76 f   user32:USER32.dll
 0001:0002fc7c       _SetRect@20                67db0c7c f   user32:USER32.dll
 0001:0002fc82       _SetRectEmpty@4            67db0c82 f   user32:USER32.dll
 0001:0002fc88       _EqualRect@8               67db0c88 f   user32:USER32.dll
 0001:0002fc8e       _InflateRect@12            67db0c8e f   user32:USER32.dll
 0001:0002fc94       _OffsetRect@12             67db0c94 f   user32:USER32.dll
 0001:0002fc9a       _IntersectRect@12          67db0c9a f   user32:USER32.dll
 0001:0002fca0       _UnionRect@12              67db0ca0 f   user32:USER32.dll
 0001:0002fca6       _SubtractRect@12           67db0ca6 f   user32:USER32.dll
 0001:0002fcac       _SetThreadToken@8          67db0cac f   advapi32:ADVAPI32.dll
 0001:0002fcb2       _RevertToSelf@0            67db0cb2 f   advapi32:ADVAPI32.dll
 0001:0002fcb8       _OpenThreadToken@16        67db0cb8 f   advapi32:ADVAPI32.dll
 0002:00000000       __imp__SetThreadToken@8    67db4000     advapi32:ADVAPI32.dll
 0002:00000004       __imp__RevertToSelf@0      67db4004     advapi32:ADVAPI32.dll
 0002:00000008       __imp__OpenThreadToken@16  67db4008     advapi32:ADVAPI32.dll
 0002:0000000c       \177ADVAPI32_NULL_THUNK_DATA 67db400c     advapi32:ADVAPI32.dll
 0002:00000010       __imp__GetSaveFileNameA@4  67db4010     comdlg32:COMDLG32.dll
 0002:00000014       \177COMDLG32_NULL_THUNK_DATA 67db4014     comdlg32:COMDLG32.dll
 0002:00000018       __imp__CorCabSetPrm@12     67db4018     Corapi:CORAPI.dll
 0002:0000001c       __imp__CorAcqGetCap@12     67db401c     Corapi:CORAPI.dll
 0002:00000020       \177CORAPI_NULL_THUNK_DATA 67db4020     Corapi:CORAPI.dll
 0002:00000024       __imp__GetTextExtentPoint32A@16 67db4024     gdi32:GDI32.dll
 0002:00000028       \177GDI32_NULL_THUNK_DATA  67db4028     gdi32:GDI32.dll
 0002:0000002c       __imp__OpenFileMappingA@12 67db402c     kernel32:KERNEL32.dll
 0002:00000030       __imp__GetCurrentThread@0  67db4030     kernel32:KERNEL32.dll
 0002:00000034       __imp__CreateFileMappingA@24 67db4034     kernel32:KERNEL32.dll
 0002:00000038       __imp__MapViewOfFile@20    67db4038     kernel32:KERNEL32.dll
 0002:0000003c       __imp__GetSystemInfo@4     67db403c     kernel32:KERNEL32.dll
 0002:00000040       __imp__UnmapViewOfFile@4   67db4040     kernel32:KERNEL32.dll
 0002:00000044       __imp__InterlockedIncrement@4 67db4044     kernel32:KERNEL32.dll
 0002:00000048       __imp__GetLastError@0      67db4048     kernel32:KERNEL32.dll
 0002:0000004c       __imp__OutputDebugStringW@4 67db404c     kernel32:KERNEL32.dll
 0002:00000050       __imp__OutputDebugStringA@4 67db4050     kernel32:KERNEL32.dll
 0002:00000054       __imp__OpenEventA@12       67db4054     kernel32:KERNEL32.dll
 0002:00000058       __imp__SetEvent@4          67db4058     kernel32:KERNEL32.dll
 0002:0000005c       __imp__CloseHandle@4       67db405c     kernel32:KERNEL32.dll
 0002:00000060       __imp__MulDiv@12           67db4060     kernel32:KERNEL32.dll
 0002:00000064       __imp__VirtualAlloc@16     67db4064     kernel32:KERNEL32.dll
 0002:00000068       __imp__GetCurrentProcess@0 67db4068     kernel32:KERNEL32.dll
 0002:0000006c       __imp__FreeLibrary@4       67db406c     kernel32:KERNEL32.dll
 0002:00000070       __imp__VirtualQuery@12     67db4070     kernel32:KERNEL32.dll
 0002:00000074       __imp__GetModuleFileNameW@12 67db4074     kernel32:KERNEL32.dll
 0002:00000078       __imp__GetProcessHeap@0    67db4078     kernel32:KERNEL32.dll
 0002:0000007c       __imp__HeapAlloc@12        67db407c     kernel32:KERNEL32.dll
 0002:00000080       __imp__HeapFree@12         67db4080     kernel32:KERNEL32.dll
 0002:00000084       __imp__GetSystemTimeAsFileTime@4 67db4084     kernel32:KERNEL32.dll
 0002:00000088       __imp__GetCurrentProcessId@0 67db4088     kernel32:KERNEL32.dll
 0002:0000008c       __imp__GetCurrentThreadId@0 67db408c     kernel32:KERNEL32.dll
 0002:00000090       __imp__QueryPerformanceCounter@4 67db4090     kernel32:KERNEL32.dll
 0002:00000094       __imp__SetUnhandledExceptionFilter@4 67db4094     kernel32:KERNEL32.dll
 0002:00000098       __imp__UnhandledExceptionFilter@4 67db4098     kernel32:KERNEL32.dll
 0002:0000009c       __imp__GetTickCount@0      67db409c     kernel32:KERNEL32.dll
 0002:000000a0       __imp__GetEnvironmentVariableA@12 67db40a0     kernel32:KERNEL32.dll
 0002:000000a4       __imp__GetPrivateProfileStringA@24 67db40a4     kernel32:KERNEL32.dll
 0002:000000a8       __imp__IsBadReadPtr@8      67db40a8     kernel32:KERNEL32.dll
 0002:000000ac       __imp__GetCurrentDirectoryA@8 67db40ac     kernel32:KERNEL32.dll
 0002:000000b0       __imp__OpenFile@12         67db40b0     kernel32:KERNEL32.dll
 0002:000000b4       __imp__WaitForSingleObject@8 67db40b4     kernel32:KERNEL32.dll
 0002:000000b8       __imp__CreateProcessA@40   67db40b8     kernel32:KERNEL32.dll
 0002:000000bc       __imp__GetStartupInfoA@4   67db40bc     kernel32:KERNEL32.dll
 0002:000000c0       __imp__Sleep@4             67db40c0     kernel32:KERNEL32.dll
 0002:000000c4       __imp__InterlockedExchange@8 67db40c4     kernel32:KERNEL32.dll
 0002:000000c8       __imp__InterlockedCompareExchange@12 67db40c8     kernel32:KERNEL32.dll
 0002:000000cc       __imp__IsDebuggerPresent@0 67db40cc     kernel32:KERNEL32.dll
 0002:000000d0       __imp__RaiseException@16   67db40d0     kernel32:KERNEL32.dll
 0002:000000d4       __imp__DebugBreak@0        67db40d4     kernel32:KERNEL32.dll
 0002:000000d8       __imp__WideCharToMultiByte@32 67db40d8     kernel32:KERNEL32.dll
 0002:000000dc       __imp__MultiByteToWideChar@24 67db40dc     kernel32:KERNEL32.dll
 0002:000000e0       __imp__lstrlenA@4          67db40e0     kernel32:KERNEL32.dll
 0002:000000e4       __imp__GetProcAddress@8    67db40e4     kernel32:KERNEL32.dll
 0002:000000e8       __imp__LoadLibraryA@4      67db40e8     kernel32:KERNEL32.dll
 0002:000000ec       __imp__TerminateProcess@8  67db40ec     kernel32:KERNEL32.dll
 0002:000000f0       __imp__InterlockedDecrement@4 67db40f0     kernel32:KERNEL32.dll
 0002:000000f4       \177KERNEL32_NULL_THUNK_DATA 67db40f4     kernel32:KERNEL32.dll
 0002:000000f8       __imp____clean_type_info_names_internal 67db40f8     msvcrtd:MSVCR90D.dll
 0002:000000fc       __imp___crt_debugger_hook  67db40fc     msvcrtd:MSVCR90D.dll
 0002:00000100       __imp___except_handler4_common 67db4100     msvcrtd:MSVCR90D.dll
 0002:00000104       __imp_?_type_info_dtor_internal_method@type_info@@QAEXXZ 67db4104     msvcrtd:MSVCR90D.dll
 0002:00000108       __imp____CppXcptFilter     67db4108     msvcrtd:MSVCR90D.dll
 0002:0000010c       __imp___adjust_fdiv        67db410c     msvcrtd:MSVCR90D.dll
 0002:00000110       __imp___amsg_exit          67db4110     msvcrtd:MSVCR90D.dll
 0002:00000114       __imp___initterm_e         67db4114     msvcrtd:MSVCR90D.dll
 0002:00000118       __imp___initterm           67db4118     msvcrtd:MSVCR90D.dll
 0002:0000011c       __imp___CrtSetCheckCount   67db411c     msvcrtd:MSVCR90D.dll
 0002:00000120       __imp___encoded_null       67db4120     msvcrtd:MSVCR90D.dll
 0002:00000124       __imp___free_dbg           67db4124     msvcrtd:MSVCR90D.dll
 0002:00000128       __imp___malloc_dbg         67db4128     msvcrtd:MSVCR90D.dll
 0002:0000012c       __imp___decode_pointer     67db412c     msvcrtd:MSVCR90D.dll
 0002:00000130       __imp___snprintf_s         67db4130     msvcrtd:MSVCR90D.dll
 0002:00000134       __imp___errno              67db4134     msvcrtd:MSVCR90D.dll
 0002:00000138       __imp___CxxThrowException@8 67db4138     msvcrtd:MSVCR90D.dll
 0002:0000013c       __imp___CrtDbgReportW      67db413c     msvcrtd:MSVCR90D.dll
 0002:00000140       __imp___CrtDbgReport       67db4140     msvcrtd:MSVCR90D.dll
 0002:00000144       __imp__free                67db4144     msvcrtd:MSVCR90D.dll
 0002:00000148       __imp__strcpy              67db4148     msvcrtd:MSVCR90D.dll
 0002:0000014c       __imp__wcscpy              67db414c     msvcrtd:MSVCR90D.dll
 0002:00000150       __imp___vsnprintf_s        67db4150     msvcrtd:MSVCR90D.dll
 0002:00000154       __imp___vsnwprintf_s       67db4154     msvcrtd:MSVCR90D.dll
 0002:00000158       __imp___snwprintf_s        67db4158     msvcrtd:MSVCR90D.dll
 0002:0000015c       __imp__wcscpy_s            67db415c     msvcrtd:MSVCR90D.dll
 0002:00000160       __imp__wcsncpy_s           67db4160     msvcrtd:MSVCR90D.dll
 0002:00000164       __imp__strcpy_s            67db4164     msvcrtd:MSVCR90D.dll
 0002:00000168       __imp__calloc              67db4168     msvcrtd:MSVCR90D.dll
 0002:0000016c       __imp___recalloc           67db416c     msvcrtd:MSVCR90D.dll
 0002:00000170       __imp__memcmp              67db4170     msvcrtd:MSVCR90D.dll
 0002:00000174       __imp___wcsicmp            67db4174     msvcrtd:MSVCR90D.dll
 0002:00000178       __imp__memmove_s           67db4178     msvcrtd:MSVCR90D.dll
 0002:0000017c       __imp__wcslen              67db417c     msvcrtd:MSVCR90D.dll
 0002:00000180       __imp___onexit             67db4180     msvcrtd:MSVCR90D.dll
 0002:00000184       __imp___lock               67db4184     msvcrtd:MSVCR90D.dll
 0002:00000188       __imp___encode_pointer     67db4188     msvcrtd:MSVCR90D.dll
 0002:0000018c       __imp____dllonexit         67db418c     msvcrtd:MSVCR90D.dll
 0002:00000190       __imp___unlock             67db4190     msvcrtd:MSVCR90D.dll
 0002:00000194       __imp_?terminate@@YAXXZ    67db4194     msvcrtd:MSVCR90D.dll
 0002:00000198       __imp___CRT_RTC_INITW      67db4198     msvcrtd:MSVCR90D.dll
 0002:0000019c       __imp__floor               67db419c     msvcrtd:MSVCR90D.dll
 0002:000001a0       __imp__strcmp              67db41a0     msvcrtd:MSVCR90D.dll
 0002:000001a4       __imp___vsnprintf          67db41a4     msvcrtd:MSVCR90D.dll
 0002:000001a8       __imp__strrchr             67db41a8     msvcrtd:MSVCR90D.dll
 0002:000001ac       __imp___stricmp            67db41ac     msvcrtd:MSVCR90D.dll
 0002:000001b0       __imp__strstr              67db41b0     msvcrtd:MSVCR90D.dll
 0002:000001b4       __imp__memset              67db41b4     msvcrtd:MSVCR90D.dll
 0002:000001b8       __imp__strlen              67db41b8     msvcrtd:MSVCR90D.dll
 0002:000001bc       __imp____CxxFrameHandler3  67db41bc     msvcrtd:MSVCR90D.dll
 0002:000001c0       __imp___splitpath_s        67db41c0     msvcrtd:MSVCR90D.dll
 0002:000001c4       \177MSVCR90D_NULL_THUNK_DATA 67db41c4     msvcrtd:MSVCR90D.dll
 0002:000001c8       __imp__SysFreeString@4     67db41c8     oleaut32:OLEAUT32.dll
 0002:000001cc       \177OLEAUT32_NULL_THUNK_DATA 67db41cc     oleaut32:OLEAUT32.dll
 0002:000001d0       __imp_?GetXferParams@SapXferNode@@UBE?AVSapXferParams@@H@Z 67db41d0     SapClassBasic:SapClassBasic74.dll
 0002:000001d4       __imp_?GetInputXferParams@SapXferNode@@UBE?AVSapXferParams@@H@Z 67db41d4     SapClassBasic:SapClassBasic74.dll
 0002:000001d8       __imp_?GetOutputXferParams@SapXferNode@@UBE?AVSapXferParams@@H@Z 67db41d8     SapClassBasic:SapClassBasic74.dll
 0002:000001dc       __imp_?SetXferParams@SapXferNode@@UAEHVSapXferParams@@H@Z 67db41dc     SapClassBasic:SapClassBasic74.dll
 0002:000001e0       __imp_?SetInputXferParams@SapXferNode@@UAEHVSapXferParams@@H@Z 67db41e0     SapClassBasic:SapClassBasic74.dll
 0002:000001e4       __imp_?SetOutputXferParams@SapXferNode@@UAEHVSapXferParams@@H@Z 67db41e4     SapClassBasic:SapClassBasic74.dll
 0002:000001e8       __imp_?GetHandle@SapBuffer@@UBEPAU__CORHANDLE@@H@Z 67db41e8     SapClassBasic:SapClassBasic74.dll
 0002:000001ec       __imp_?GetHandle@SapBuffer@@UBEPAU__CORHANDLE@@XZ 67db41ec     SapClassBasic:SapClassBasic74.dll
 0002:000001f0       __imp_?GetXferNodeType@SapBuffer@@UAE?AW4XferNodeType@SapXferNode@@XZ 67db41f0     SapClassBasic:SapClassBasic74.dll
 0002:000001f4       __imp_??ASapBuffer@@UBEPAU__CORHANDLE@@H@Z 67db41f4     SapClassBasic:SapClassBasic74.dll
 0002:000001f8       __imp_?GetCount@SapBuffer@@UBEHXZ 67db41f8     SapClassBasic:SapClassBasic74.dll
 0002:000001fc       __imp_?GetIndex@SapBuffer@@UBEHXZ 67db41fc     SapClassBasic:SapClassBasic74.dll
 0002:00000200       __imp_?SetIndex@SapBuffer@@UAEHH@Z 67db4200     SapClassBasic:SapClassBasic74.dll
 0002:00000204       __imp_?ResetIndex@SapBuffer@@UAEXXZ 67db4204     SapClassBasic:SapClassBasic74.dll
 0002:00000208       __imp_?Next@SapBuffer@@UAEXXZ 67db4208     SapClassBasic:SapClassBasic74.dll
 0002:0000020c       __imp_?GetTrash@SapBuffer@@UBEPAU__CORHANDLE@@XZ 67db420c     SapClassBasic:SapClassBasic74.dll
 0002:00000210       __imp_?Empty@SapBuffer@@UAEHH@Z 67db4210     SapClassBasic:SapClassBasic74.dll
 0002:00000214       __imp_?Empty@SapBuffer@@UAEHXZ 67db4214     SapClassBasic:SapClassBasic74.dll
 0002:00000218       __imp_?EmptyAll@SapBuffer@@UAEHXZ 67db4218     SapClassBasic:SapClassBasic74.dll
 0002:0000021c       __imp_?SetCount@SapBuffer@@UAEHH@Z 67db421c     SapClassBasic:SapClassBasic74.dll
 0002:00000220       __imp_?SetWidth@SapBuffer@@UAEHH@Z 67db4220     SapClassBasic:SapClassBasic74.dll
 0002:00000224       __imp_?SetHeight@SapBuffer@@UAEHH@Z 67db4224     SapClassBasic:SapClassBasic74.dll
 0002:00000228       __imp_?SetFormat@SapBuffer@@UAEHH@Z 67db4228     SapClassBasic:SapClassBasic74.dll
 0002:0000022c       __imp_?SetType@SapBuffer@@UAEHH@Z 67db422c     SapClassBasic:SapClassBasic74.dll
 0002:00000230       __imp_?SetPixelDepth@SapBuffer@@UAEHH@Z 67db4230     SapClassBasic:SapClassBasic74.dll
 0002:00000234       __imp_?SetVirtualAddress@SapBuffer@@UAEHQAPAX@Z 67db4234     SapClassBasic:SapClassBasic74.dll
 0002:00000238       __imp_?SetPhysicalAddress@SapBuffer@@UAEHQAK@Z 67db4238     SapClassBasic:SapClassBasic74.dll
 0002:0000023c       __imp_?SetParameters@SapBuffer@@UAEHHQAKHHHH@Z 67db423c     SapClassBasic:SapClassBasic74.dll
 0002:00000240       __imp_?SetParameters@SapBuffer@@UAEHHQAPAXHHHH@Z 67db4240     SapClassBasic:SapClassBasic74.dll
 0002:00000244       __imp_?SetParameters@SapBuffer@@UAEHHHHHH@Z 67db4244     SapClassBasic:SapClassBasic74.dll
 0002:00000248       __imp_?SetParametersFromFile@SapBuffer@@UAEHPBDH@Z 67db4248     SapClassBasic:SapClassBasic74.dll
 0002:0000024c       __imp_?SetFrameRate@SapBuffer@@UAEXM@Z 67db424c     SapClassBasic:SapClassBasic74.dll
 0002:00000250       __imp_?GetAddress@SapBuffer@@UAEHH_KIPAXPAPAX@Z 67db4250     SapClassBasic:SapClassBasic74.dll
 0002:00000254       __imp_?GetAddress@SapBuffer@@UAEHH_KIPAPAX@Z 67db4254     SapClassBasic:SapClassBasic74.dll
 0002:00000258       __imp_?GetAddress@SapBuffer@@UAEH_KIPAXPAPAX@Z 67db4258     SapClassBasic:SapClassBasic74.dll
 0002:0000025c       __imp_?GetAddress@SapBuffer@@UAEH_KIPAPAX@Z 67db425c     SapClassBasic:SapClassBasic74.dll
 0002:00000260       __imp_?GetAddress@SapBuffer@@UAEHHPAXPAPAX@Z 67db4260     SapClassBasic:SapClassBasic74.dll
 0002:00000264       __imp_?GetAddress@SapBuffer@@UAEHHPAPAX@Z 67db4264     SapClassBasic:SapClassBasic74.dll
 0002:00000268       __imp_?GetAddress@SapBuffer@@UAEHPAXPAPAX@Z 67db4268     SapClassBasic:SapClassBasic74.dll
 0002:0000026c       __imp_?GetAddress@SapBuffer@@UAEHPAPAX@Z 67db426c     SapClassBasic:SapClassBasic74.dll
 0002:00000270       __imp_?ReleaseAddress@SapBuffer@@UAEHHPAX@Z 67db4270     SapClassBasic:SapClassBasic74.dll
 0002:00000274       __imp_?ReleaseAddress@SapBuffer@@UAEHPAX@Z 67db4274     SapClassBasic:SapClassBasic74.dll
 0002:00000278       __imp_?IsMapped@SapBuffer@@UAEHXZ 67db4278     SapClassBasic:SapClassBasic74.dll
 0002:0000027c       __imp_?IsMapped@SapBuffer@@UAEHH@Z 67db427c     SapClassBasic:SapClassBasic74.dll
 0002:00000280       __imp_?GetCounterStamp@SapBuffer@@UAEHHPAH@Z 67db4280     SapClassBasic:SapClassBasic74.dll
 0002:00000284       __imp_?GetCounterStamp@SapBuffer@@UAEHPAH@Z 67db4284     SapClassBasic:SapClassBasic74.dll
 0002:00000288       __imp_?GetHostCounterStamp@SapBuffer@@UAEHHPA_K@Z 67db4288     SapClassBasic:SapClassBasic74.dll
 0002:0000028c       __imp_?GetHostCounterStamp@SapBuffer@@UAEHPA_K@Z 67db428c     SapClassBasic:SapClassBasic74.dll
 0002:00000290       __imp_?GetSpaceUsed@SapBuffer@@UAEHHPAH@Z 67db4290     SapClassBasic:SapClassBasic74.dll
 0002:00000294       __imp_?GetSpaceUsed@SapBuffer@@UAEHPAH@Z 67db4294     SapClassBasic:SapClassBasic74.dll
 0002:00000298       __imp_?GetHandles@SapBuffer@@UBEPAPAU__CORHANDLE@@XZ 67db4298     SapClassBasic:SapClassBasic74.dll
 0002:0000029c       __imp_?IsCapabilityValid@SapBuffer@@UAEHH@Z 67db429c     SapClassBasic:SapClassBasic74.dll
 0002:000002a0       __imp_?GetCapability@SapBuffer@@UAEHHHPAX@Z 67db42a0     SapClassBasic:SapClassBasic74.dll
 0002:000002a4       __imp_?GetCapability@SapBuffer@@UAEHHPAX@Z 67db42a4     SapClassBasic:SapClassBasic74.dll
 0002:000002a8       __imp_?IsParameterValid@SapBuffer@@UAEHH@Z 67db42a8     SapClassBasic:SapClassBasic74.dll
 0002:000002ac       __imp_?GetParameter@SapBuffer@@UAEHHHPAX@Z 67db42ac     SapClassBasic:SapClassBasic74.dll
 0002:000002b0       __imp_?GetParameter@SapBuffer@@UAEHHPAX@Z 67db42b0     SapClassBasic:SapClassBasic74.dll
 0002:000002b4       __imp_?SetParameter@SapBuffer@@UAEHHHPAX@Z 67db42b4     SapClassBasic:SapClassBasic74.dll
 0002:000002b8       __imp_?SetParameter@SapBuffer@@UAEHHPAX@Z 67db42b8     SapClassBasic:SapClassBasic74.dll
 0002:000002bc       __imp_?SetParameter@SapBuffer@@UAEHHHH@Z 67db42bc     SapClassBasic:SapClassBasic74.dll
 0002:000002c0       __imp_?SetParameter@SapBuffer@@UAEHHH@Z 67db42c0     SapClassBasic:SapClassBasic74.dll
 0002:000002c4       __imp_?GetParent@SapBuffer@@UAEPAV1@XZ 67db42c4     SapClassBasic:SapClassBasic74.dll
 0002:000002c8       __imp_?GetRoot@SapBuffer@@UAEPAV1@XZ 67db42c8     SapClassBasic:SapClassBasic74.dll
 0002:000002cc       __imp_?SetState@SapBuffer@@UAEHHH@Z 67db42cc     SapClassBasic:SapClassBasic74.dll
 0002:000002d0       __imp_?SetState@SapBuffer@@UAEHH@Z 67db42d0     SapClassBasic:SapClassBasic74.dll
 0002:000002d4       __imp_?SetAllState@SapBuffer@@UAEHH@Z 67db42d4     SapClassBasic:SapClassBasic74.dll
 0002:000002d8       __imp_?GetState@SapBuffer@@UAEHHPAH@Z 67db42d8     SapClassBasic:SapClassBasic74.dll
 0002:000002dc       __imp_?GetState@SapBuffer@@UAEHPAH@Z 67db42dc     SapClassBasic:SapClassBasic74.dll
 0002:000002e0       __imp_?SetPage@SapBuffer@@UAEHHH@Z 67db42e0     SapClassBasic:SapClassBasic74.dll
 0002:000002e4       __imp_?SetPage@SapBuffer@@UAEHH@Z 67db42e4     SapClassBasic:SapClassBasic74.dll
 0002:000002e8       __imp_?SetAllPage@SapBuffer@@UAEHH@Z 67db42e8     SapClassBasic:SapClassBasic74.dll
 0002:000002ec       __imp_?GetPage@SapBuffer@@UAEHHPAH@Z 67db42ec     SapClassBasic:SapClassBasic74.dll
 0002:000002f0       __imp_?GetPage@SapBuffer@@UAEHPAH@Z 67db42f0     SapClassBasic:SapClassBasic74.dll
 0002:000002f4       __imp_?Clear@SapBuffer@@UAEHHVSapData@@@Z 67db42f4     SapClassBasic:SapClassBasic74.dll
 0002:000002f8       __imp_?Clear@SapBuffer@@UAEHVSapData@@@Z 67db42f8     SapClassBasic:SapClassBasic74.dll
 0002:000002fc       __imp_?Clear@SapBuffer@@UAEHH@Z 67db42fc     SapClassBasic:SapClassBasic74.dll
 0002:00000300       __imp_?Clear@SapBuffer@@UAEHXZ 67db4300     SapClassBasic:SapClassBasic74.dll
 0002:00000304       __imp_?Load@SapBuffer@@UAEHPBDHHH0@Z 67db4304     SapClassBasic:SapClassBasic74.dll
 0002:00000308       __imp_?Save@SapBuffer@@UAEHPBD0HH@Z 67db4308     SapClassBasic:SapClassBasic74.dll
 0002:0000030c       __imp_?Read@SapBuffer@@UAEHH_KHPAX@Z 67db430c     SapClassBasic:SapClassBasic74.dll
 0002:00000310       __imp_?Read@SapBuffer@@UAEH_KHPAX@Z 67db4310     SapClassBasic:SapClassBasic74.dll
 0002:00000314       __imp_?ReadElement@SapBuffer@@UAEHHHPAH00@Z 67db4314     SapClassBasic:SapClassBasic74.dll
 0002:00000318       __imp_?ReadElement@SapBuffer@@UAEHHHHPAVSapData@@@Z 67db4318     SapClassBasic:SapClassBasic74.dll
 0002:0000031c       __imp_?ReadElement@SapBuffer@@UAEHHHPAVSapData@@@Z 67db431c     SapClassBasic:SapClassBasic74.dll
 0002:00000320       __imp_?ReadElement@SapBuffer@@UAEHHHHPAX@Z 67db4320     SapClassBasic:SapClassBasic74.dll
 0002:00000324       __imp_?ReadElement@SapBuffer@@UAEHHHPAX@Z 67db4324     SapClassBasic:SapClassBasic74.dll
 0002:00000328       __imp_?ReadLine@SapBuffer@@UAEHHHHHHPAXPAH@Z 67db4328     SapClassBasic:SapClassBasic74.dll
 0002:0000032c       __imp_?ReadLine@SapBuffer@@UAEHHHHHPAXPAH@Z 67db432c     SapClassBasic:SapClassBasic74.dll
 0002:00000330       __imp_?ReadRect@SapBuffer@@UAEHHHHHHPAX@Z 67db4330     SapClassBasic:SapClassBasic74.dll
 0002:00000334       __imp_?ReadRect@SapBuffer@@UAEHHHHHPAX@Z 67db4334     SapClassBasic:SapClassBasic74.dll
 0002:00000338       __imp_?Write@SapBuffer@@UAEHH_KHPBX@Z 67db4338     SapClassBasic:SapClassBasic74.dll
 0002:0000033c       __imp_?Write@SapBuffer@@UAEH_KHPBX@Z 67db433c     SapClassBasic:SapClassBasic74.dll
 0002:00000340       __imp_?WriteElement@SapBuffer@@UAEHHHHVSapData@@@Z 67db4340     SapClassBasic:SapClassBasic74.dll
 0002:00000344       __imp_?WriteElement@SapBuffer@@UAEHHHVSapData@@@Z 67db4344     SapClassBasic:SapClassBasic74.dll
 0002:00000348       __imp_?WriteElement@SapBuffer@@UAEHHHHPBX@Z 67db4348     SapClassBasic:SapClassBasic74.dll
 0002:0000034c       __imp_?WriteElement@SapBuffer@@UAEHHHPBX@Z 67db434c     SapClassBasic:SapClassBasic74.dll
 0002:00000350       __imp_?WriteLine@SapBuffer@@UAEHHHHHHPBXPAH@Z 67db4350     SapClassBasic:SapClassBasic74.dll
 0002:00000354       __imp_?WriteLine@SapBuffer@@UAEHHHHHPBXPAH@Z 67db4354     SapClassBasic:SapClassBasic74.dll
 0002:00000358       __imp_?WriteRect@SapBuffer@@UAEHHHHHHPBX@Z 67db4358     SapClassBasic:SapClassBasic74.dll
 0002:0000035c       __imp_?WriteRect@SapBuffer@@UAEHHHHHPBX@Z 67db435c     SapClassBasic:SapClassBasic74.dll
 0002:00000360       __imp_?Copy@SapBuffer@@UAEHPAV1@HH@Z 67db4360     SapClassBasic:SapClassBasic74.dll
 0002:00000364       __imp_?Copy@SapBuffer@@UAEHPAV1@@Z 67db4364     SapClassBasic:SapClassBasic74.dll
 0002:00000368       __imp_?CopyAll@SapBuffer@@UAEHPAV1@@Z 67db4368     SapClassBasic:SapClassBasic74.dll
 0002:0000036c       __imp_?CopyRect@SapBuffer@@UAEHPAV1@HHHHHHHH@Z 67db436c     SapClassBasic:SapClassBasic74.dll
 0002:00000370       __imp_?BayerConvert@SapBuffer@@UAEHPAV1@HHHHVSapDataFRGB@@PAVSapLut@@@Z 67db4370     SapClassBasic:SapClassBasic74.dll
 0002:00000374       __imp_?BayerConvert@SapBuffer@@UAEHPAV1@HHVSapDataFRGB@@PAVSapLut@@@Z 67db4374     SapClassBasic:SapClassBasic74.dll
 0002:00000378       __imp_?BayerWhiteBalance@SapBuffer@@UAEHHHPAVSapDataFRGB@@@Z 67db4378     SapClassBasic:SapClassBasic74.dll
 0002:0000037c       __imp_?BayerWhiteBalance@SapBuffer@@UAEHHPAVSapDataFRGB@@@Z 67db437c     SapClassBasic:SapClassBasic74.dll
 0002:00000380       __imp_?SplitComponents@SapBuffer@@UAEHPAV1@H@Z 67db4380     SapClassBasic:SapClassBasic74.dll
 0002:00000384       __imp_?SplitComponents@SapBuffer@@UAEHPAV1@@Z 67db4384     SapClassBasic:SapClassBasic74.dll
 0002:00000388       __imp_?MergeComponents@SapBuffer@@UAEHPAV1@H@Z 67db4388     SapClassBasic:SapClassBasic74.dll
 0002:0000038c       __imp_?MergeComponents@SapBuffer@@UAEHPAV1@@Z 67db438c     SapClassBasic:SapClassBasic74.dll
 0002:00000390       __imp_??0SapBuffer@@QAE@PBDHVSapLocation@@@Z 67db4390     SapClassBasic:SapClassBasic74.dll
 0002:00000394       __imp_?Unregister@SapBuffer@@UAEHXZ 67db4394     SapClassBasic:SapClassBasic74.dll
 0002:00000398       __imp_?GetNumRoi@SapBuffer@@UBEHXZ 67db4398     SapClassBasic:SapClassBasic74.dll
 0002:0000039c       __imp_?GetRoi@SapBuffer@@UBEQAUtagRECT@@H@Z 67db439c     SapClassBasic:SapClassBasic74.dll
 0002:000003a0       __imp_?AddRoi@SapBuffer@@UAEHUtagRECT@@@Z 67db43a0     SapClassBasic:SapClassBasic74.dll
 0002:000003a4       __imp_?RemoveAllRoi@SapBuffer@@UAEHXZ 67db43a4     SapClassBasic:SapClassBasic74.dll
 0002:000003a8       __imp_?GetChild@SapBuffer@@UBEPAU__CORHANDLE@@HH@Z 67db43a8     SapClassBasic:SapClassBasic74.dll
 0002:000003ac       __imp_?Construct@SapBuffer@@MAEXPBDPAVSapDisplay@@@Z 67db43ac     SapClassBasic:SapClassBasic74.dll
 0002:000003b0       __imp_?GetLastStatus@SapManager@@SAPBDXZ 67db43b0     SapClassBasic:SapClassBasic74.dll
 0002:000003b4       __imp_?GetAverage@SapFlatFieldStats@@QBEHH@Z 67db43b4     SapClassBasic:SapClassBasic74.dll
 0002:000003b8       __imp_?GetNumComponents@SapFlatFieldStats@@QBEHXZ 67db43b8     SapClassBasic:SapClassBasic74.dll
 0002:000003bc       __imp_??1SapFlatFieldStats@@QAE@XZ 67db43bc     SapClassBasic:SapClassBasic74.dll
 0002:000003c0       __imp_??0SapFlatFieldStats@@QAE@XZ 67db43c0     SapClassBasic:SapClassBasic74.dll
 0002:000003c4       __imp_??1SapFlatFieldDefects@@QAE@XZ 67db43c4     SapClassBasic:SapClassBasic74.dll
 0002:000003c8       __imp_?GetNumDefects@SapFlatFieldDefects@@QBEHXZ 67db43c8     SapClassBasic:SapClassBasic74.dll
 0002:000003cc       __imp_?GetDefectRatio@SapFlatFieldDefects@@QBEMXZ 67db43cc     SapClassBasic:SapClassBasic74.dll
 0002:000003d0       __imp_?Destroy@SapBuffer@@UAEHXZ 67db43d0     SapClassBasic:SapClassBasic74.dll
 0002:000003d4       __imp_??0SapFlatFieldDefects@@QAE@XZ 67db43d4     SapClassBasic:SapClassBasic74.dll
 0002:000003d8       __imp_?GetStdDeviation@SapFlatFieldStats@@QBEHH@Z 67db43d8     SapClassBasic:SapClassBasic74.dll
 0002:000003dc       __imp_?GetLow@SapFlatFieldStats@@QBEHH@Z 67db43dc     SapClassBasic:SapClassBasic74.dll
 0002:000003e0       __imp_?GetHigh@SapFlatFieldStats@@QBEHH@Z 67db43e0     SapClassBasic:SapClassBasic74.dll
 0002:000003e4       __imp_?GetPeakPosition@SapFlatFieldStats@@QBEHH@Z 67db43e4     SapClassBasic:SapClassBasic74.dll
 0002:000003e8       __imp_?GetPixelRatio@SapFlatFieldStats@@QBEMH@Z 67db43e8     SapClassBasic:SapClassBasic74.dll
 0002:000003ec       __imp_?GetNumPixels@SapFlatFieldStats@@QBEHH@Z 67db43ec     SapClassBasic:SapClassBasic74.dll
 0002:000003f0       __imp_?WriteFile@SapAcqDevice@@QAEHPBDH@Z 67db43f0     SapClassBasic:SapClassBasic74.dll
 0002:000003f4       __imp_?SetCommandTimeout@SapManager@@SAXH@Z 67db43f4     SapClassBasic:SapClassBasic74.dll
 0002:000003f8       __imp_?GetCommandTimeout@SapManager@@SAHXZ 67db43f8     SapClassBasic:SapClassBasic74.dll
 0002:000003fc       __imp_?GetPinNumber@SapGioCallbackInfo@@QBEHXZ 67db43fc     SapClassBasic:SapClassBasic74.dll
 0002:00000400       __imp_?GetEventCount@SapGioCallbackInfo@@QBEHXZ 67db4400     SapClassBasic:SapClassBasic74.dll
 0002:00000404       __imp_?GetContext@SapGioCallbackInfo@@QBEPAXXZ 67db4404     SapClassBasic:SapClassBasic74.dll
 0002:00000408       __imp_?GetNumPins@SapGio@@QBEHXZ 67db4408     SapClassBasic:SapClassBasic74.dll
 0002:0000040c       __imp_?SetDisplayStatusMode@SapManager@@SAHHP6AXPAVSapManCallbackInfo@@@ZPAX@Z 67db440c     SapClassBasic:SapClassBasic74.dll
 0002:00000410       __imp_?GetBuffer@SapView@@QBEPAVSapBuffer@@XZ 67db4410     SapClassBasic:SapClassBasic74.dll
 0002:00000414       __imp_?ZoomVert@SapViewScaleParams@@QBEMXZ 67db4414     SapClassBasic:SapClassBasic74.dll
 0002:00000418       __imp_?ZoomHorz@SapViewScaleParams@@QBEMXZ 67db4418     SapClassBasic:SapClassBasic74.dll
 0002:0000041c       __imp_?GetScaleParamsSrc@SapView@@QAEABVSapViewScaleParams@@XZ 67db441c     SapClassBasic:SapClassBasic74.dll
 0002:00000420       __imp_?Top@SapViewScaleParams@@QBEHXZ 67db4420     SapClassBasic:SapClassBasic74.dll
 0002:00000424       __imp_?Left@SapViewScaleParams@@QBEHXZ 67db4424     SapClassBasic:SapClassBasic74.dll
 0002:00000428       __imp_?GetScaleParamsDst@SapView@@QAEABVSapViewScaleParams@@XZ 67db4428     SapClassBasic:SapClassBasic74.dll
 0002:0000042c       __imp_?GetScrollRange@SapView@@QBE?AUtagSIZE@@XZ 67db442c     SapClassBasic:SapClassBasic74.dll
 0002:00000430       __imp_?GetScrollPos@SapView@@QBE?AUtagPOINT@@XZ 67db4430     SapClassBasic:SapClassBasic74.dll
 0002:00000434       __imp_?Height@SapViewScaleParams@@QBEHXZ 67db4434     SapClassBasic:SapClassBasic74.dll
 0002:00000438       __imp_?Width@SapViewScaleParams@@QBEHXZ 67db4438     SapClassBasic:SapClassBasic74.dll
 0002:0000043c       __imp_?GetScalingMode@SapView@@QBE?AW4ScalingMode@1@XZ 67db443c     SapClassBasic:SapClassBasic74.dll
 0002:00000440       __imp_??1SapDataMono@@UAE@XZ 67db4440     SapClassBasic:SapClassBasic74.dll
 0002:00000444       __imp_?Mono@SapDataMono@@QAEHXZ 67db4444     SapClassBasic:SapClassBasic74.dll
 0002:00000448       __imp_??0SapDataMono@@QAE@XZ 67db4448     SapClassBasic:SapClassBasic74.dll
 0002:0000044c       __imp_??1SapData@@UAE@XZ   67db444c     SapClassBasic:SapClassBasic74.dll
 0002:00000450       __imp_??0SapDataRGB@@QAE@ABVSapData@@@Z 67db4450     SapClassBasic:SapClassBasic74.dll
 0002:00000454       __imp_??0SapData@@QAE@XZ   67db4454     SapClassBasic:SapClassBasic74.dll
 0002:00000458       __imp_??1SapDataRGB@@UAE@XZ 67db4458     SapClassBasic:SapClassBasic74.dll
 0002:0000045c       __imp_?Red@SapDataRGB@@QAEHXZ 67db445c     SapClassBasic:SapClassBasic74.dll
 0002:00000460       __imp_?Green@SapDataRGB@@QAEHXZ 67db4460     SapClassBasic:SapClassBasic74.dll
 0002:00000464       __imp_?Blue@SapDataRGB@@QAEHXZ 67db4464     SapClassBasic:SapClassBasic74.dll
 0002:00000468       __imp_??0SapDataRGB@@QAE@XZ 67db4468     SapClassBasic:SapClassBasic74.dll
 0002:0000046c       __imp_??1SapDataRGBA@@UAE@XZ 67db446c     SapClassBasic:SapClassBasic74.dll
 0002:00000470       __imp_?Red@SapDataRGBA@@QAEHXZ 67db4470     SapClassBasic:SapClassBasic74.dll
 0002:00000474       __imp_?Green@SapDataRGBA@@QAEHXZ 67db4474     SapClassBasic:SapClassBasic74.dll
 0002:00000478       __imp_?Blue@SapDataRGBA@@QAEHXZ 67db4478     SapClassBasic:SapClassBasic74.dll
 0002:0000047c       __imp_??0SapDataRGBA@@QAE@XZ 67db447c     SapClassBasic:SapClassBasic74.dll
 0002:00000480       __imp_??1SapDataYUV@@UAE@XZ 67db4480     SapClassBasic:SapClassBasic74.dll
 0002:00000484       __imp_?Y@SapDataYUV@@QAEHXZ 67db4484     SapClassBasic:SapClassBasic74.dll
 0002:00000488       __imp_?U@SapDataYUV@@QAEHXZ 67db4488     SapClassBasic:SapClassBasic74.dll
 0002:0000048c       __imp_?V@SapDataYUV@@QAEHXZ 67db448c     SapClassBasic:SapClassBasic74.dll
 0002:00000490       __imp_??0SapDataYUV@@QAE@XZ 67db4490     SapClassBasic:SapClassBasic74.dll
 0002:00000494       __imp_??1SapDataHSV@@UAE@XZ 67db4494     SapClassBasic:SapClassBasic74.dll
 0002:00000498       __imp_?H@SapDataHSV@@QAEHXZ 67db4498     SapClassBasic:SapClassBasic74.dll
 0002:0000049c       __imp_?S@SapDataHSV@@QAEHXZ 67db449c     SapClassBasic:SapClassBasic74.dll
 0002:000004a0       __imp_?V@SapDataHSV@@QAEHXZ 67db44a0     SapClassBasic:SapClassBasic74.dll
 0002:000004a4       __imp_??0SapDataHSV@@QAE@XZ 67db44a4     SapClassBasic:SapClassBasic74.dll
 0002:000004a8       __imp_??1SapDataLABA@@UAE@XZ 67db44a8     SapClassBasic:SapClassBasic74.dll
 0002:000004ac       __imp_?L@SapDataLABA@@QAEHXZ 67db44ac     SapClassBasic:SapClassBasic74.dll
 0002:000004b0       __imp_?A@SapDataLABA@@QAEHXZ 67db44b0     SapClassBasic:SapClassBasic74.dll
 0002:000004b4       __imp_?B@SapDataLABA@@QAEHXZ 67db44b4     SapClassBasic:SapClassBasic74.dll
 0002:000004b8       __imp_??0SapDataLABA@@QAE@XZ 67db44b8     SapClassBasic:SapClassBasic74.dll
 0002:000004bc       __imp_??1SapDataLAB@@UAE@XZ 67db44bc     SapClassBasic:SapClassBasic74.dll
 0002:000004c0       __imp_?L@SapDataLAB@@QAEHXZ 67db44c0     SapClassBasic:SapClassBasic74.dll
 0002:000004c4       __imp_?A@SapDataLAB@@QAEHXZ 67db44c4     SapClassBasic:SapClassBasic74.dll
 0002:000004c8       __imp_?B@SapDataLAB@@QAEHXZ 67db44c8     SapClassBasic:SapClassBasic74.dll
 0002:000004cc       __imp_??0SapDataLAB@@QAE@XZ 67db44cc     SapClassBasic:SapClassBasic74.dll
 0002:000004d0       __imp_??1SapDataHSI@@UAE@XZ 67db44d0     SapClassBasic:SapClassBasic74.dll
 0002:000004d4       __imp_?H@SapDataHSI@@QAEHXZ 67db44d4     SapClassBasic:SapClassBasic74.dll
 0002:000004d8       __imp_?S@SapDataHSI@@QAEHXZ 67db44d8     SapClassBasic:SapClassBasic74.dll
 0002:000004dc       __imp_?I@SapDataHSI@@QAEHXZ 67db44dc     SapClassBasic:SapClassBasic74.dll
 0002:000004e0       __imp_??0SapDataHSI@@QAE@XZ 67db44e0     SapClassBasic:SapClassBasic74.dll
 0002:000004e4       __imp_?SetRefImage@SapPixProParams@@QAEXH@Z 67db44e4     SapClassBasic:SapClassBasic74.dll
 0002:000004e8       __imp_?SetBankId@SapPixProParams@@QAEXH@Z 67db44e8     SapClassBasic:SapClassBasic74.dll
 0002:000004ec       __imp_??1SapPixPro@@UAE@XZ 67db44ec     SapClassBasic:SapClassBasic74.dll
 0002:000004f0       __imp_??4SapPixPro@@QAEAAV0@ABV0@@Z 67db44f0     SapClassBasic:SapClassBasic74.dll
 0002:000004f4       __imp_??0SapPixPro@@QAE@VSapLocation@@PBDPAVSapXferNode@@PAVSapPixProParams@@@Z 67db44f4     SapClassBasic:SapClassBasic74.dll
 0002:000004f8       __imp_??1SapPixProParams@@QAE@XZ 67db44f8     SapClassBasic:SapClassBasic74.dll
 0002:000004fc       __imp_?SetConfigIndex@SapPixProParams@@QAEXH@Z 67db44fc     SapClassBasic:SapClassBasic74.dll
 0002:00000500       __imp_?SetFunctionIndex@SapPixProParams@@QAEXH@Z 67db4500     SapClassBasic:SapClassBasic74.dll
 0002:00000504       __imp_?GetParams@SapPixPro@@QBEPBVSapPixProParams@@XZ 67db4504     SapClassBasic:SapClassBasic74.dll
 0002:00000508       __imp_?GetConfigIndex@SapPixProParams@@QBEHXZ 67db4508     SapClassBasic:SapClassBasic74.dll
 0002:0000050c       __imp_?GetFunctionIndex@SapPixProParams@@QBEHXZ 67db450c     SapClassBasic:SapClassBasic74.dll
 0002:00000510       __imp_?GetFile@SapPixPro@@QBEPBDXZ 67db4510     SapClassBasic:SapClassBasic74.dll
 0002:00000514       __imp_?GetFunctionInfo@SapPixPro@@QAEHHPAUCORPPL_FCT_PROP@@PADH@Z 67db4514     SapClassBasic:SapClassBasic74.dll
 0002:00000518       __imp_?GetConfigInfo@SapPixPro@@QAEHHPADH@Z 67db4518     SapClassBasic:SapClassBasic74.dll
 0002:0000051c       __imp_?GetNumConfigs@SapPixPro@@QAEHXZ 67db451c     SapClassBasic:SapClassBasic74.dll
 0002:00000520       __imp_?GetNumFunctions@SapPixPro@@QAEHXZ 67db4520     SapClassBasic:SapClassBasic74.dll
 0002:00000524       __imp_?ReadDesign@SapPixPro@@QAEHPAD@Z 67db4524     SapClassBasic:SapClassBasic74.dll
 0002:00000528       __imp_?SetIntegrateFactor@SapPixProParams@@QAEXH@Z 67db4528     SapClassBasic:SapClassBasic74.dll
 0002:0000052c       __imp_?SetIntegrateCount@SapPixProParams@@QAEXH@Z 67db452c     SapClassBasic:SapClassBasic74.dll
 0002:00000530       __imp_?SetWeightingFactor@SapPixProParams@@QAEXH@Z 67db4530     SapClassBasic:SapClassBasic74.dll
 0002:00000534       __imp_??1SapViewScaleParams@@QAE@XZ 67db4534     SapClassBasic:SapClassBasic74.dll
 0002:00000538       __imp_??1SapManager@@UAE@XZ 67db4538     SapClassBasic:SapClassBasic74.dll
 0002:0000053c       __imp_??0SapAcquisition@@QAE@VSapLocation@@@Z 67db453c     SapClassBasic:SapClassBasic74.dll
 0002:00000540       __imp_?Create@SapBuffer@@UAEHXZ 67db4540     SapClassBasic:SapClassBasic74.dll
 0002:00000544       __imp_?Load@SapBuffer@@UAEHPBD0HH@Z 67db4544     SapClassBasic:SapClassBasic74.dll
 0002:00000548       __imp_?GetOffsetMinMax@SapFlatField@@QAEXPAH0@Z 67db4548     SapClassBasic:SapClassBasic74.dll
 0002:0000054c       __imp_?GetCorrectionType@SapFlatField@@QBE?AW4CorrectionType@1@XZ 67db454c     SapClassBasic:SapClassBasic74.dll
 0002:00000550       __imp_?GetVideoType@SapFlatField@@QBE?AW4VideoType@SapAcquisition@@XZ 67db4550     SapClassBasic:SapClassBasic74.dll
 0002:00000554       __imp_?GetNumLinesAverage@SapFlatField@@QBEHXZ 67db4554     SapClassBasic:SapClassBasic74.dll
 0002:00000558       __imp_?GetNumFramesAverage@SapFlatField@@QBEHXZ 67db4558     SapClassBasic:SapClassBasic74.dll
 0002:0000055c       __imp_?GetVerticalOffset@SapFlatField@@QBEHXZ 67db455c     SapClassBasic:SapClassBasic74.dll
 0002:00000560       __imp_?GetGainDivisor@SapFlatField@@QBEHXZ 67db4560     SapClassBasic:SapClassBasic74.dll
 0002:00000564       __imp_?GetDeviationMaxBlack@SapFlatField@@QBEHXZ 67db4564     SapClassBasic:SapClassBasic74.dll
 0002:00000568       __imp_?GetDeviationMaxWhite@SapFlatField@@QBEHXZ 67db4568     SapClassBasic:SapClassBasic74.dll
 0002:0000056c       __imp_?GetIndex@SapFlatField@@QBEHXZ 67db456c     SapClassBasic:SapClassBasic74.dll
 0002:00000570       __imp_?IsClippedGainOffsetDefects@SapFlatField@@QBEHXZ 67db4570     SapClassBasic:SapClassBasic74.dll
 0002:00000574       __imp_?GetBlackPixelPercentage@SapFlatField@@QBEMXZ 67db4574     SapClassBasic:SapClassBasic74.dll
 0002:00000578       __imp_?GetNumFlatField@SapFlatField@@QBEHXZ 67db4578     SapClassBasic:SapClassBasic74.dll
 0002:0000057c       __imp_?GetAcqDevice@SapFlatField@@QBEPAVSapAcqDevice@@XZ 67db457c     SapClassBasic:SapClassBasic74.dll
 0002:00000580       __imp_??0SapFeature@@QAE@VSapLocation@@@Z 67db4580     SapClassBasic:SapClassBasic74.dll
 0002:00000584       __imp_?Create@SapFeature@@UAEHXZ 67db4584     SapClassBasic:SapClassBasic74.dll
 0002:00000588       __imp_?IsFeatureAvailable@SapAcqDevice@@QAEHPBDPAH@Z 67db4588     SapClassBasic:SapClassBasic74.dll
 0002:0000058c       __imp_?GetFeatureValue@SapAcqDevice@@QAEHPBDPADH@Z 67db458c     SapClassBasic:SapClassBasic74.dll
 0002:00000590       __imp_??1SapFeature@@UAE@XZ 67db4590     SapClassBasic:SapClassBasic74.dll
 0002:00000594       __imp_?GetFileCount@SapAcqDevice@@QAEHPAH@Z 67db4594     SapClassBasic:SapClassBasic74.dll
 0002:00000598       __imp_?GetFileNameByIndex@SapAcqDevice@@QAEHHPADH@Z 67db4598     SapClassBasic:SapClassBasic74.dll
 0002:0000059c       __imp_?GetFeatureInfo@SapAcqDevice@@QAEHPBDPAVSapFeature@@@Z 67db459c     SapClassBasic:SapClassBasic74.dll
 0002:000005a0       __imp_?GetDisplayName@SapFeature@@QAEHPADH@Z 67db45a0     SapClassBasic:SapClassBasic74.dll
 0002:000005a4       __imp_?Destroy@SapFeature@@UAEHXZ 67db45a4     SapClassBasic:SapClassBasic74.dll
 0002:000005a8       __imp_?GetCamFile@SapAcquisition@@QBEPBDXZ 67db45a8     SapClassBasic:SapClassBasic74.dll
 0002:000005ac       __imp_?GetVicFile@SapAcquisition@@QBEPBDXZ 67db45ac     SapClassBasic:SapClassBasic74.dll
 0002:000005b0       __imp_??1SapCab@@UAE@XZ    67db45b0     SapClassBasic:SapClassBasic74.dll
 0002:000005b4       __imp_?Construct@SapCab@@MAEXHHPBH@Z 67db45b4     SapClassBasic:SapClassBasic74.dll
 0002:000005b8       __imp_?SetParameter@SapCab@@UAEHHH@Z 67db45b8     SapClassBasic:SapClassBasic74.dll
 0002:000005bc       __imp_?SetParameter@SapCab@@UAEHHPAX@Z 67db45bc     SapClassBasic:SapClassBasic74.dll
 0002:000005c0       __imp_?GetParameter@SapCab@@UAEHHPAX@Z 67db45c0     SapClassBasic:SapClassBasic74.dll
 0002:000005c4       __imp_?GetCapability@SapCab@@UAEHHPAX@Z 67db45c4     SapClassBasic:SapClassBasic74.dll
 0002:000005c8       __imp_?EmptyAll@SapXferNode@@UAEHXZ 67db45c8     SapClassBasic:SapClassBasic74.dll
 0002:000005cc       __imp_?Empty@SapXferNode@@UAEHXZ 67db45cc     SapClassBasic:SapClassBasic74.dll
 0002:000005d0       __imp_?GetNumClusters@SapFlatFieldDefects@@QBEHXZ 67db45d0     SapClassBasic:SapClassBasic74.dll
 0002:000005d4       __imp_??0SapBuffer@@QAE@HPAVSapXferNode@@HVSapLocation@@@Z 67db45d4     SapClassBasic:SapClassBasic74.dll
 0002:000005d8       __imp_??1SapLocation@@UAE@XZ 67db45d8     SapClassBasic:SapClassBasic74.dll
 0002:000005dc       __imp_??0SapLocation@@QAE@HH@Z 67db45dc     SapClassBasic:SapClassBasic74.dll
 0002:000005e0       __imp_??0SapManager@@QAE@XZ 67db45e0     SapClassBasic:SapClassBasic74.dll
 0002:000005e4       __imp_?Empty@SapXferNode@@UAEHH@Z 67db45e4     SapClassBasic:SapClassBasic74.dll
 0002:000005e8       __imp_??1SapAcquisition@@UAE@XZ 67db45e8     SapClassBasic:SapClassBasic74.dll
 0002:000005ec       __imp_?GetTrash@SapXferNode@@UBEPAU__CORHANDLE@@XZ 67db45ec     SapClassBasic:SapClassBasic74.dll
 0002:000005f0       __imp_?Next@SapXferNode@@UAEXXZ 67db45f0     SapClassBasic:SapClassBasic74.dll
 0002:000005f4       __imp_?ResetIndex@SapXferNode@@UAEXXZ 67db45f4     SapClassBasic:SapClassBasic74.dll
 0002:000005f8       __imp_?SetIndex@SapXferNode@@UAEHH@Z 67db45f8     SapClassBasic:SapClassBasic74.dll
 0002:000005fc       __imp_?GetIndex@SapXferNode@@UBEHXZ 67db45fc     SapClassBasic:SapClassBasic74.dll
 0002:00000600       __imp_?GetCount@SapXferNode@@UBEHXZ 67db4600     SapClassBasic:SapClassBasic74.dll
 0002:00000604       __imp_??ASapXferNode@@UBEPAU__CORHANDLE@@H@Z 67db4604     SapClassBasic:SapClassBasic74.dll
 0002:00000608       __imp_?IsBuffer@SapXferNode@@UAEHXZ 67db4608     SapClassBasic:SapClassBasic74.dll
 0002:0000060c       __imp_?GetXferNodeType@SapCab@@UAE?AW4XferNodeType@SapXferNode@@XZ 67db460c     SapClassBasic:SapClassBasic74.dll
 0002:00000610       __imp_?GetXferParamsFromSrcNode@SapXferNode@@UAEXXZ 67db4610     SapClassBasic:SapClassBasic74.dll
 0002:00000614       __imp_?GetHandle@SapXferNode@@UBEPAU__CORHANDLE@@XZ 67db4614     SapClassBasic:SapClassBasic74.dll
 0002:00000618       __imp_?GetHandle@SapXferNode@@UBEPAU__CORHANDLE@@H@Z 67db4618     SapClassBasic:SapClassBasic74.dll
 0002:0000061c       __imp_?SetOutputXferParams@SapCab@@UAEHVSapXferParams@@H@Z 67db461c     SapClassBasic:SapClassBasic74.dll
 0002:00000620       __imp_?SetInputXferParams@SapCab@@UAEHVSapXferParams@@H@Z 67db4620     SapClassBasic:SapClassBasic74.dll
 0002:00000624       __imp_?SetXferParams@SapCab@@UAEHVSapXferParams@@H@Z 67db4624     SapClassBasic:SapClassBasic74.dll
 0002:00000628       __imp_?SetSrcNode@SapXferNode@@UAEHPAV1@H@Z 67db4628     SapClassBasic:SapClassBasic74.dll
 0002:0000062c       __imp_?GetOutputXferParams@SapCab@@UBE?AVSapXferParams@@H@Z 67db462c     SapClassBasic:SapClassBasic74.dll
 0002:00000630       __imp_?GetInputXferParams@SapCab@@UBE?AVSapXferParams@@H@Z 67db4630     SapClassBasic:SapClassBasic74.dll
 0002:00000634       __imp_?GetXferParams@SapCab@@UBE?AVSapXferParams@@H@Z 67db4634     SapClassBasic:SapClassBasic74.dll
 0002:00000638       __imp_?Destroy@SapCab@@UAEHXZ 67db4638     SapClassBasic:SapClassBasic74.dll
 0002:0000063c       __imp_?Create@SapCab@@UAEHXZ 67db463c     SapClassBasic:SapClassBasic74.dll
 0002:00000640       __imp_??0SapLocation@@QAE@ABV0@H@Z 67db4640     SapClassBasic:SapClassBasic74.dll
 0002:00000644       __imp_??0SapCab@@QAE@VSapLocation@@PAVSapXferNode@@@Z 67db4644     SapClassBasic:SapClassBasic74.dll
 0002:00000648       __imp_?GetPixelDepthMin@SapManager@@SAHH@Z 67db4648     SapClassBasic:SapClassBasic74.dll
 0002:0000064c       __imp_?GetPixelDepthMax@SapManager@@SAHH@Z 67db464c     SapClassBasic:SapClassBasic74.dll
 0002:00000650       __imp_??0SapBuffer@@QAE@HHHHHVSapLocation@@@Z 67db4650     SapClassBasic:SapClassBasic74.dll
 0002:00000654       __imp_??0SapLocation@@QAE@XZ 67db4654     SapClassBasic:SapClassBasic74.dll
 0002:00000658       __imp_?GetWidth@SapBuffer@@QBEHXZ 67db4658     SapClassBasic:SapClassBasic74.dll
 0002:0000065c       __imp_?GetHeight@SapBuffer@@QBEHXZ 67db465c     SapClassBasic:SapClassBasic74.dll
 0002:00000660       __imp_?GetFormat@SapBuffer@@QBEHXZ 67db4660     SapClassBasic:SapClassBasic74.dll
 0002:00000664       __imp_?GetType@SapBuffer@@QBEHXZ 67db4664     SapClassBasic:SapClassBasic74.dll
 0002:00000668       __imp_?GetPixelDepth@SapBuffer@@QBEHXZ 67db4668     SapClassBasic:SapClassBasic74.dll
 0002:0000066c       __imp_?GetSrcNode@SapXferNode@@QBEPAV1@XZ 67db466c     SapClassBasic:SapClassBasic74.dll
 0002:00000670       __imp_??4SapLocation@@QAEAAV0@ABV0@@Z 67db4670     SapClassBasic:SapClassBasic74.dll
 0002:00000674       __imp_?IsBufferTypeSupported@SapBuffer@@SAHVSapLocation@@H@Z 67db4674     SapClassBasic:SapClassBasic74.dll
 0002:00000678       __imp_??1SapBuffer@@UAE@XZ 67db4678     SapClassBasic:SapClassBasic74.dll
 0002:0000067c       __imp_??BSapManager@@QBEHXZ 67db467c     SapClassBasic:SapClassBasic74.dll
 0002:00000680       __imp_??0SapDataFRGB@@QAE@MMM@Z 67db4680     SapClassBasic:SapClassBasic74.dll
 0002:00000684       __imp_?IsSoftware@SapBayer@@QBEHXZ 67db4684     SapClassBasic:SapClassBasic74.dll
 0002:00000688       __imp_?GetAvailAlign@SapBayer@@QBEHXZ 67db4688     SapClassBasic:SapClassBasic74.dll
 0002:0000068c       __imp_?GetAvailMethod@SapBayer@@QBEHXZ 67db468c     SapClassBasic:SapClassBasic74.dll
 0002:00000690       __imp_?GetAlign@SapBayer@@QBEHXZ 67db4690     SapClassBasic:SapClassBasic74.dll
 0002:00000694       __imp_?GetMethod@SapBayer@@QBEHXZ 67db4694     SapClassBasic:SapClassBasic74.dll
 0002:00000698       __imp_?GetWBGain@SapBayer@@QBE?AVSapDataFRGB@@XZ 67db4698     SapClassBasic:SapClassBasic74.dll
 0002:0000069c       __imp_?Red@SapDataFRGB@@QAEMXZ 67db469c     SapClassBasic:SapClassBasic74.dll
 0002:000006a0       __imp_?Green@SapDataFRGB@@QAEMXZ 67db46a0     SapClassBasic:SapClassBasic74.dll
 0002:000006a4       __imp_?Blue@SapDataFRGB@@QAEMXZ 67db46a4     SapClassBasic:SapClassBasic74.dll
 0002:000006a8       __imp_?GetGamma@SapBayer@@QBEMXZ 67db46a8     SapClassBasic:SapClassBasic74.dll
 0002:000006ac       __imp_?IsLutEnabled@SapBayer@@QBEHXZ 67db46ac     SapClassBasic:SapClassBasic74.dll
 0002:000006b0       __imp_?IsEnabled@SapBayer@@QBEHXZ 67db46b0     SapClassBasic:SapClassBasic74.dll
 0002:000006b4       __imp_??1SapDataFRGB@@UAE@XZ 67db46b4     SapClassBasic:SapClassBasic74.dll
 0002:000006b8       __imp_?DisplayStatus@SapManager@@SAIPBDI@Z 67db46b8     SapClassBasic:SapClassBasic74.dll
 0002:000006bc       __imp_?GetResourceCount@SapManager@@SAHVSapLocation@@H@Z 67db46bc     SapClassBasic:SapClassBasic74.dll
 0002:000006c0       __imp_?GetResourceCount@SapManager@@SAHPBDH@Z 67db46c0     SapClassBasic:SapClassBasic74.dll
 0002:000006c4       __imp_?GetResourceName@SapManager@@SAHPBDHHPADH@Z 67db46c4     SapClassBasic:SapClassBasic74.dll
 0002:000006c8       __imp_?IsResourceAvailable@SapManager@@SAHPBDHH@Z 67db46c8     SapClassBasic:SapClassBasic74.dll
 0002:000006cc       __imp_?GetServerCount@SapManager@@SAHXZ 67db46cc     SapClassBasic:SapClassBasic74.dll
 0002:000006d0       __imp_?GetResourceCount@SapManager@@SAHHH@Z 67db46d0     SapClassBasic:SapClassBasic74.dll
 0002:000006d4       __imp_?GetServerName@SapManager@@SAHHPADH@Z 67db46d4     SapClassBasic:SapClassBasic74.dll
 0002:000006d8       __imp_?SetLocation@SapXferNode@@QAEHVSapLocation@@@Z 67db46d8     SapClassBasic:SapClassBasic74.dll
 0002:000006dc       __imp_??0SapLocation@@QAE@PBDH@Z 67db46dc     SapClassBasic:SapClassBasic74.dll
 0002:000006e0       __imp_??4SapAcquisition@@QAEAAV0@ABV0@@Z 67db46e0     SapClassBasic:SapClassBasic74.dll
 0002:000006e4       __imp_?GetLocation@SapXferNode@@QBE?AVSapLocation@@XZ 67db46e4     SapClassBasic:SapClassBasic74.dll
 0002:000006e8       __imp_?GetConfigFile@SapAcquisition@@QBEPBDXZ 67db46e8     SapClassBasic:SapClassBasic74.dll
 0002:000006ec       __imp_??0SapLocation@@QAE@ABV0@@Z 67db46ec     SapClassBasic:SapClassBasic74.dll
 0002:000006f0       __imp_?GetServerName@SapManager@@SAHVSapLocation@@PADH@Z 67db46f0     SapClassBasic:SapClassBasic74.dll
 0002:000006f4       __imp_?Register@SapBuffer@@UAEHPBD@Z 67db46f4     SapClassBasic:SapClassBasic74.dll
 0002:000006f8       __imp_?GetResourceIndex@SapLocation@@QBEHXZ 67db46f8     SapClassBasic:SapClassBasic74.dll
 0002:000006fc       \177SapClassBasic74_NULL_THUNK_DATA 67db46fc     SapClassBasic:SapClassBasic74.dll
 0002:00000700       __imp__SubtractRect@12     67db4700     user32:USER32.dll
 0002:00000704       __imp__IntersectRect@12    67db4704     user32:USER32.dll
 0002:00000708       __imp__OffsetRect@12       67db4708     user32:USER32.dll
 0002:0000070c       __imp__InflateRect@12      67db470c     user32:USER32.dll
 0002:00000710       __imp__EqualRect@8         67db4710     user32:USER32.dll
 0002:00000714       __imp__SetRectEmpty@4      67db4714     user32:USER32.dll
 0002:00000718       __imp__SetRect@20          67db4718     user32:USER32.dll
 0002:0000071c       __imp__PtInRect@12         67db471c     user32:USER32.dll
 0002:00000720       __imp__IsRectEmpty@4       67db4720     user32:USER32.dll
 0002:00000724       __imp__CopyRect@8          67db4724     user32:USER32.dll
 0002:00000728       __imp__GetCursorPos@4      67db4728     user32:USER32.dll
 0002:0000072c       __imp__IsIconic@4          67db472c     user32:USER32.dll
 0002:00000730       __imp__SetForegroundWindow@4 67db4730     user32:USER32.dll
 0002:00000734       __imp__SetDlgItemTextA@12  67db4734     user32:USER32.dll
 0002:00000738       __imp__GetFocus@0          67db4738     user32:USER32.dll
 0002:0000073c       __imp__GetSystemMetrics@4  67db473c     user32:USER32.dll
 0002:00000740       __imp__UnionRect@12        67db4740     user32:USER32.dll
 0002:00000744       \177USER32_NULL_THUNK_DATA 67db4744     user32:USER32.dll
 0002:00000748       __imp_?GetTextMetricsA@CDC@@QBEHPAUtagTEXTMETRICA@@@Z 67db4748     mfc90d:mfc90d.dll
 0002:0000074c       __imp_?GetFont@CWnd@@QBEPAVCFont@@XZ 67db474c     mfc90d:mfc90d.dll
 0002:00000750       __imp_?GetDC@CWnd@@QAEPAVCDC@@XZ 67db4750     mfc90d:mfc90d.dll
 0002:00000754       __imp_?CompareNoCase@?$CStringT@DV?$StrTraitMFC_DLL@DV?$ChTraitsCRT@D@ATL@@@@@ATL@@QBEHPBD@Z 67db4754     mfc90d:mfc90d.dll
 0002:00000758       __imp_?GetText@CListBox@@QBEHHPAD@Z 67db4758     mfc90d:mfc90d.dll
 0002:0000075c       __imp_?GetCount@CListBox@@QBEHXZ 67db475c     mfc90d:mfc90d.dll
 0002:00000760       __imp_?ReleaseBuffer@?$CSimpleStringT@D$00@ATL@@QAEXH@Z 67db4760     mfc90d:mfc90d.dll
 0002:00000764       __imp_?Dir@CListBox@@QAEHIPBD@Z 67db4764     mfc90d:mfc90d.dll
 0002:00000768       __imp_?ResetContent@CListBox@@QAEXXZ 67db4768     mfc90d:mfc90d.dll
 0002:0000076c       __imp_??_U@YAPAXIPBDH@Z    67db476c     mfc90d:mfc90d.dll
 0002:00000770       __imp_?UpdateData@CWnd@@QAEHH@Z 67db4770     mfc90d:mfc90d.dll
 0002:00000774       __imp_?EnableWindow@CWnd@@QAEHH@Z 67db4774     mfc90d:mfc90d.dll
 0002:00000778       __imp_?GetDlgItem@CWnd@@QBEPAV1@H@Z 67db4778     mfc90d:mfc90d.dll
 0002:0000077c       __imp_?GetCurSel@CComboBox@@QBEHXZ 67db477c     mfc90d:mfc90d.dll
 0002:00000780       __imp_?OnVScroll@CWnd@@IAEXIIPAVCScrollBar@@@Z 67db4780     mfc90d:mfc90d.dll
 0002:00000784       __imp_?GetCheck@CButton@@QBEHXZ 67db4784     mfc90d:mfc90d.dll
 0002:00000788       __imp_?SetCheck@CButton@@QAEXH@Z 67db4788     mfc90d:mfc90d.dll
 0002:0000078c       __imp_?AfxMessageBox@@YGHPBDII@Z 67db478c     mfc90d:mfc90d.dll
 0002:00000790       __imp_??1CScrollBar@@UAE@XZ 67db4790     mfc90d:mfc90d.dll
 0002:00000794       __imp_??0CScrollBar@@QAE@XZ 67db4794     mfc90d:mfc90d.dll
 0002:00000798       __imp_?DDX_Text@@YGXPAVCDataExchange@@HAAH@Z 67db4798     mfc90d:mfc90d.dll
 0002:0000079c       __imp_?DDV_MinMaxInt@@YGXPAVCDataExchange@@HHH@Z 67db479c     mfc90d:mfc90d.dll
 0002:000007a0       __imp_?GetDlgCtrlID@CWnd@@QBEHXZ 67db47a0     mfc90d:mfc90d.dll
 0002:000007a4       __imp_?DDX_Radio@@YGXPAVCDataExchange@@HAAH@Z 67db47a4     mfc90d:mfc90d.dll
 0002:000007a8       __imp_?DDX_Text@@YGXPAVCDataExchange@@HAAM@Z 67db47a8     mfc90d:mfc90d.dll
 0002:000007ac       __imp_?OnShowWindow@CWnd@@IAEXHI@Z 67db47ac     mfc90d:mfc90d.dll
 0002:000007b0       __imp_??0?$CStringT@DV?$StrTraitMFC_DLL@DV?$ChTraitsCRT@D@ATL@@@@@ATL@@QAE@PBD@Z 67db47b0     mfc90d:mfc90d.dll
 0002:000007b4       __imp_?AfxFindResourceHandle@@YGPAUHINSTANCE__@@PBD0@Z 67db47b4     mfc90d:mfc90d.dll
 0002:000007b8       __imp_?Concatenate@?$CSimpleStringT@D$00@ATL@@KAXAAV12@PBDH1H@Z 67db47b8     mfc90d:mfc90d.dll
 0002:000007bc       __imp_?GetLength@?$CSimpleStringT@D$00@ATL@@QBEHXZ 67db47bc     mfc90d:mfc90d.dll
 0002:000007c0       __imp_??0?$CStringT@DV?$StrTraitMFC_DLL@DV?$ChTraitsCRT@D@ATL@@@@@ATL@@QAE@PAUIAtlStringMgr@1@@Z 67db47c0     mfc90d:mfc90d.dll
 0002:000007c4       __imp_?GetManager@?$CStringT@DV?$StrTraitMFC_DLL@DV?$ChTraitsCRT@D@ATL@@@@@ATL@@QBEPAUIAtlStringMgr@2@XZ 67db47c4     mfc90d:mfc90d.dll
 0002:000007c8       __imp_?DDV_MinMaxUInt@@YGXPAVCDataExchange@@III@Z 67db47c8     mfc90d:mfc90d.dll
 0002:000007cc       __imp_??3@YAXPAXPBDH@Z     67db47cc     mfc90d:mfc90d.dll
 0002:000007d0       __imp_??2@YAPAXIPBDH@Z     67db47d0     mfc90d:mfc90d.dll
 0002:000007d4       __imp_?DDV_MinMaxDWord@@YGXPAVCDataExchange@@KKK@Z 67db47d4     mfc90d:mfc90d.dll
 0002:000007d8       __imp_?IsWindowEnabled@CWnd@@QBEHXZ 67db47d8     mfc90d:mfc90d.dll
 0002:000007dc       __imp_?InsertItem@CTabCtrl@@QAEJHPBD@Z 67db47dc     mfc90d:mfc90d.dll
 0002:000007e0       __imp_?Format@?$CStringT@DV?$StrTraitMFC_DLL@DV?$ChTraitsCRT@D@ATL@@@@@ATL@@QAAXPBDZZ 67db47e0     mfc90d:mfc90d.dll
 0002:000007e4       __imp_?MessageBoxA@CWnd@@QAEHPBD0I@Z 67db47e4     mfc90d:mfc90d.dll
 0002:000007e8       __imp_?GetCurSel@CTabCtrl@@QBEHXZ 67db47e8     mfc90d:mfc90d.dll
 0002:000007ec       __imp_?IsEmpty@?$CSimpleStringT@D$00@ATL@@QBE_NXZ 67db47ec     mfc90d:mfc90d.dll
 0002:000007f0       __imp_?EndWaitCursor@CCmdTarget@@QAEXXZ 67db47f0     mfc90d:mfc90d.dll
 0002:000007f4       __imp_?BeginWaitCursor@CCmdTarget@@QAEXXZ 67db47f4     mfc90d:mfc90d.dll
 0002:000007f8       __imp_??Y?$CStringT@DV?$StrTraitMFC_DLL@DV?$ChTraitsCRT@D@ATL@@@@@ATL@@QAEAAV01@PBD@Z 67db47f8     mfc90d:mfc90d.dll
 0002:000007fc       __imp_?Replace@?$CStringT@DV?$StrTraitMFC_DLL@DV?$ChTraitsCRT@D@ATL@@@@@ATL@@QAEHPBD0@Z 67db47fc     mfc90d:mfc90d.dll
 0002:00000800       __imp_?StringLength@?$CSimpleStringT@D$00@ATL@@SAHPBD@Z 67db4800     mfc90d:mfc90d.dll
 0002:00000804       __imp_??1CSliderCtrl@@UAE@XZ 67db4804     mfc90d:mfc90d.dll
 0002:00000808       __imp_??0CSliderCtrl@@QAE@XZ 67db4808     mfc90d:mfc90d.dll
 0002:0000080c       __imp_?DDX_Text@@YGXPAVCDataExchange@@HAAJ@Z 67db480c     mfc90d:mfc90d.dll
 0002:00000810       __imp_?CheckRadioButton@CWnd@@QAEXHHH@Z 67db4810     mfc90d:mfc90d.dll
 0002:00000814       __imp_?SetPos@CSliderCtrl@@QAEXH@Z 67db4814     mfc90d:mfc90d.dll
 0002:00000818       __imp_?SetPageSize@CSliderCtrl@@QAEHH@Z 67db4818     mfc90d:mfc90d.dll
 0002:0000081c       __imp_?SetTicFreq@CSliderCtrl@@QAEXH@Z 67db481c     mfc90d:mfc90d.dll
 0002:00000820       __imp_?SetRange@CSliderCtrl@@QAEXHHH@Z 67db4820     mfc90d:mfc90d.dll
 0002:00000824       __imp_?OnHScroll@CWnd@@IAEXIIPAVCScrollBar@@@Z 67db4824     mfc90d:mfc90d.dll
 0002:00000828       __imp_??1CStatic@@UAE@XZ   67db4828     mfc90d:mfc90d.dll
 0002:0000082c       __imp_??1CButton@@UAE@XZ   67db482c     mfc90d:mfc90d.dll
 0002:00000830       __imp_??0CStatic@@QAE@XZ   67db4830     mfc90d:mfc90d.dll
 0002:00000834       __imp_??0CButton@@QAE@XZ   67db4834     mfc90d:mfc90d.dll
 0002:00000838       __imp_?DDX_Text@@YGXPAVCDataExchange@@HAAV?$CStringT@DV?$StrTraitMFC_DLL@DV?$ChTraitsCRT@D@ATL@@@@@ATL@@@Z 67db4838     mfc90d:mfc90d.dll
 0002:0000083c       __imp_?Find@?$CStringT@DV?$StrTraitMFC_DLL@DV?$ChTraitsCRT@D@ATL@@@@@ATL@@QBEHPBDH@Z 67db483c     mfc90d:mfc90d.dll
 0002:00000840       __imp_?ShowWindow@CWnd@@QAEHH@Z 67db4840     mfc90d:mfc90d.dll
 0002:00000844       __imp_?SetWindowTextA@CWnd@@QAEXPBD@Z 67db4844     mfc90d:mfc90d.dll
 0002:00000848       __imp_?OnDestroy@CWnd@@IAEXXZ 67db4848     mfc90d:mfc90d.dll
 0002:0000084c       __imp_?GetParent@CWnd@@QBEPAV1@XZ 67db484c     mfc90d:mfc90d.dll
 0002:00000850       __imp_?SetCurSel@CListBox@@QAEHH@Z 67db4850     mfc90d:mfc90d.dll
 0002:00000854       __imp_?AddString@CListBox@@QAEHPBD@Z 67db4854     mfc90d:mfc90d.dll
 0002:00000858       __imp_?ReleaseDC@CWnd@@QAEHPAVCDC@@@Z 67db4858     mfc90d:mfc90d.dll
 0002:0000085c       __imp_?SetHorizontalExtent@CListBox@@QAEXH@Z 67db485c     mfc90d:mfc90d.dll
 0002:00000860       __imp_?GetHorizontalExtent@CListBox@@QBEHXZ 67db4860     mfc90d:mfc90d.dll
 0002:00000864       __imp_?GetTextExtent@CDC@@QBE?AVCSize@@ABV?$CStringT@DV?$StrTraitMFC_DLL@DV?$ChTraitsCRT@D@ATL@@@@@ATL@@@Z 67db4864     mfc90d:mfc90d.dll
 0002:00000868       __imp_??Y?$CStringT@DV?$StrTraitMFC_DLL@DV?$ChTraitsCRT@D@ATL@@@@@ATL@@QAEAAV01@ABV?$CSimpleStringT@D$00@1@@Z 67db4868     mfc90d:mfc90d.dll
 0002:0000086c       __imp_??1CFileDialog@@UAE@XZ 67db486c     mfc90d:mfc90d.dll
 0002:00000870       __imp_??1CWaitCursor@@QAE@XZ 67db4870     mfc90d:mfc90d.dll
 0002:00000874       __imp_??0CWaitCursor@@QAE@XZ 67db4874     mfc90d:mfc90d.dll
 0002:00000878       __imp_?GetPathName@CFileDialog@@QBE?AV?$CStringT@DV?$StrTraitMFC_DLL@DV?$ChTraitsCRT@D@ATL@@@@@ATL@@XZ 67db4878     mfc90d:mfc90d.dll
 0002:0000087c       __imp_?DoModal@CFileDialog@@UAEHXZ 67db487c     mfc90d:mfc90d.dll
 0002:00000880       __imp_??0CFileDialog@@QAE@HPBD0K0PAVCWnd@@KH@Z 67db4880     mfc90d:mfc90d.dll
 0002:00000884       __imp_??0CBrush@@QAE@XZ    67db4884     mfc90d:mfc90d.dll
 0002:00000888       __imp_?MoveWindow@CWnd@@QAEXPBUtagRECT@@H@Z 67db4888     mfc90d:mfc90d.dll
 0002:0000088c       __imp_?GetClientRect@CWnd@@QBEXPAUtagRECT@@@Z 67db488c     mfc90d:mfc90d.dll
 0002:00000890       __imp_?GetLBText@CComboBox@@QBEHHPAD@Z 67db4890     mfc90d:mfc90d.dll
 0002:00000894       __imp_?GetSafeHandle@CGdiObject@@QBEPAXXZ 67db4894     mfc90d:mfc90d.dll
 0002:00000898       __imp_?OnCtlColor@CWnd@@IAEPAUHBRUSH__@@PAVCDC@@PAV1@I@Z 67db4898     mfc90d:mfc90d.dll
 0002:0000089c       __imp_?SetButtonStyle@CButton@@QAEXIH@Z 67db489c     mfc90d:mfc90d.dll
 0002:000008a0       __imp_?GetWindowTextA@CWnd@@QBEXAAV?$CStringT@DV?$StrTraitMFC_DLL@DV?$ChTraitsCRT@D@ATL@@@@@ATL@@@Z 67db48a0     mfc90d:mfc90d.dll
 0002:000008a4       __imp_??1CBrush@@UAE@XZ    67db48a4     mfc90d:mfc90d.dll
 0002:000008a8       __imp_?RedrawWindow@CWnd@@QAEHPBUtagRECT@@PAVCRgn@@I@Z 67db48a8     mfc90d:mfc90d.dll
 0002:000008ac       __imp_?ModifyStyle@CWnd@@QAEHKKI@Z 67db48ac     mfc90d:mfc90d.dll
 0002:000008b0       __imp_?InsertString@CComboBox@@QAEHHPBD@Z 67db48b0     mfc90d:mfc90d.dll
 0002:000008b4       __imp_??0CRectTracker@@QAE@XZ 67db48b4     mfc90d:mfc90d.dll
 0002:000008b8       __imp_?DrawTrackerRect@CRectTracker@@UAEXPBUtagRECT@@PAVCWnd@@PAVCDC@@1@Z 67db48b8     mfc90d:mfc90d.dll
 0002:000008bc       __imp_?OnChangedRect@CRectTracker@@UAEXABVCRect@@@Z 67db48bc     mfc90d:mfc90d.dll
 0002:000008c0       __imp_?GetHandleMask@CRectTracker@@UBEIXZ 67db48c0     mfc90d:mfc90d.dll
 0002:000008c4       __imp_?GetHandleSize@CRectTracker@@MBEHPBUtagRECT@@@Z 67db48c4     mfc90d:mfc90d.dll
 0002:000008c8       __imp_?GetScrollInfo@CWnd@@QAEHHPAUtagSCROLLINFO@@I@Z 67db48c8     mfc90d:mfc90d.dll
 0002:000008cc       __imp_?GetScrollInfo@CScrollBar@@QAEHPAUtagSCROLLINFO@@I@Z 67db48cc     mfc90d:mfc90d.dll
 0002:000008d0       __imp_?SetScrollInfo@CWnd@@QAEHHPAUtagSCROLLINFO@@H@Z 67db48d0     mfc90d:mfc90d.dll
 0002:000008d4       __imp_?SetScrollInfo@CScrollBar@@QAEHPAUtagSCROLLINFO@@H@Z 67db48d4     mfc90d:mfc90d.dll
 0002:000008d8       __imp_?FillSolidRect@CDC@@QAEXPBUtagRECT@@K@Z 67db48d8     mfc90d:mfc90d.dll
 0002:000008dc       __imp_?GetBkColor@CDC@@QBEKXZ 67db48dc     mfc90d:mfc90d.dll
 0002:000008e0       __imp_?InvalidateRect@CWnd@@QAEXPBUtagRECT@@H@Z 67db48e0     mfc90d:mfc90d.dll
 0002:000008e4       __imp_?MoveWindow@CWnd@@QAEXHHHHH@Z 67db48e4     mfc90d:mfc90d.dll
 0002:000008e8       __imp_?ScreenToClient@CWnd@@QBEXPAUtagRECT@@@Z 67db48e8     mfc90d:mfc90d.dll
 0002:000008ec       __imp_?ShowScrollBar@CScrollBar@@QAEXH@Z 67db48ec     mfc90d:mfc90d.dll
 0002:000008f0       __imp_??1CRgn@@UAE@XZ      67db48f0     mfc90d:mfc90d.dll
 0002:000008f4       __imp_??1CClientDC@@UAE@XZ 67db48f4     mfc90d:mfc90d.dll
 0002:000008f8       __imp_?Draw@CRectTracker@@QBEXPAVCDC@@@Z 67db48f8     mfc90d:mfc90d.dll
 0002:000008fc       __imp_?SetWindowOrg@CDC@@QAE?AVCPoint@@HH@Z 67db48fc     mfc90d:mfc90d.dll
 0002:00000900       __imp_?SelectClipRgn@CDC@@QAEHPAVCRgn@@@Z 67db4900     mfc90d:mfc90d.dll
 0002:00000904       __imp_??0CClientDC@@QAE@PAVCWnd@@@Z 67db4904     mfc90d:mfc90d.dll
 0002:00000908       __imp_?CreateRectRgnIndirect@CRgn@@QAEHPBUtagRECT@@@Z 67db4908     mfc90d:mfc90d.dll
 0002:0000090c       __imp_??0CRgn@@QAE@XZ      67db490c     mfc90d:mfc90d.dll
 0002:00000910       __imp_?Track@CRectTracker@@QAEHPAVCWnd@@VCPoint@@H0@Z 67db4910     mfc90d:mfc90d.dll
 0002:00000914       __imp_?TrackRubberBand@CRectTracker@@QAEHPAVCWnd@@VCPoint@@H@Z 67db4914     mfc90d:mfc90d.dll
 0002:00000918       __imp_?HitTest@CRectTracker@@QBEHVCPoint@@@Z 67db4918     mfc90d:mfc90d.dll
 0002:0000091c       __imp_?SetCursor@CRectTracker@@QBEHPAVCWnd@@I@Z 67db491c     mfc90d:mfc90d.dll
 0002:00000920       __imp_?ScreenToClient@CWnd@@QBEXPAUtagPOINT@@@Z 67db4920     mfc90d:mfc90d.dll
 0002:00000924       __imp_??1CRectTracker@@UAE@XZ 67db4924     mfc90d:mfc90d.dll
 0002:00000928       __imp_?GetThisInterfaceMap@CWnd@@KGPBUAFX_INTERFACEMAP@@XZ 67db4928     mfc90d:mfc90d.dll
 0002:0000092c       __imp_?GetThisDispatchMap@CCmdTarget@@KGPBUAFX_DISPMAP@@XZ 67db492c     mfc90d:mfc90d.dll
 0002:00000930       __imp_?DDX_Text@@YGXPAVCDataExchange@@HAAI@Z 67db4930     mfc90d:mfc90d.dll
 0002:00000934       __imp_?GetThisClass@CFileDialog@@SGPAUCRuntimeClass@@XZ 67db4934     mfc90d:mfc90d.dll
 0002:00000938       __imp_?Dump@CFileDialog@@UBEXAAVCDumpContext@@@Z 67db4938     mfc90d:mfc90d.dll
 0002:0000093c       __imp_?GetInterfaceMap@CFileDialog@@MBEPBUAFX_INTERFACEMAP@@XZ 67db493c     mfc90d:mfc90d.dll
 0002:00000940       __imp_?OnNotify@CFileDialog@@MAEHIJPAJ@Z 67db4940     mfc90d:mfc90d.dll
 0002:00000944       __imp_?OnOK@CCommonDialog@@MAEXXZ 67db4944     mfc90d:mfc90d.dll
 0002:00000948       __imp_?OnCancel@CCommonDialog@@MAEXXZ 67db4948     mfc90d:mfc90d.dll
 0002:0000094c       __imp_?OnShareViolation@CFileDialog@@MAEIPBD@Z 67db494c     mfc90d:mfc90d.dll
 0002:00000950       __imp_?SetDroppedWidth@CComboBox@@QAEHI@Z 67db4950     mfc90d:mfc90d.dll
 0002:00000954       __imp_?OnLBSelChangedNotify@CFileDialog@@MAEXIII@Z 67db4954     mfc90d:mfc90d.dll
 0002:00000958       __imp_?OnInitDone@CFileDialog@@MAEXXZ 67db4958     mfc90d:mfc90d.dll
 0002:0000095c       __imp_?OnFileNameChange@CFileDialog@@MAEXXZ 67db495c     mfc90d:mfc90d.dll
 0002:00000960       __imp_?OnFolderChange@CFileDialog@@MAEXXZ 67db4960     mfc90d:mfc90d.dll
 0002:00000964       __imp_?GetOFN@CFileDialog@@QAEAAUtagOFNA@@XZ 67db4964     mfc90d:mfc90d.dll
 0002:00000968       __imp_?AfxAssertValidObject@@YGXPBVCObject@@PBDH@Z 67db4968     mfc90d:mfc90d.dll
 0002:0000096c       __imp_?GetFileTitle@CFileDialog@@QBE?AV?$CStringT@DV?$StrTraitMFC_DLL@DV?$ChTraitsCRT@D@ATL@@@@@ATL@@XZ 67db496c     mfc90d:mfc90d.dll
 0002:00000970       __imp_?GetForegroundWindow@CWnd@@SGPAV1@XZ 67db4970     mfc90d:mfc90d.dll
 0002:00000974       __imp_?GetThisMessageMap@CCommonDialog@@KGPBUAFX_MSGMAP@@XZ 67db4974     mfc90d:mfc90d.dll
 0002:00000978       __imp_?AfxGetModuleState@@YGPAVAFX_MODULE_STATE@@XZ 67db4978     mfc90d:mfc90d.dll
 0002:0000097c       __imp_??3CObject@@SGXPAXPBDH@Z 67db497c     mfc90d:mfc90d.dll
 0002:00000980       __imp_??0CDynLinkLibrary@@QAE@AAUAFX_EXTENSION_MODULE@@H@Z 67db4980     mfc90d:mfc90d.dll
 0002:00000984       __imp_??2CObject@@SGPAXIPBDH@Z 67db4984     mfc90d:mfc90d.dll
 0002:00000988       __imp_?AfxTermExtensionModule@@YGXAAUAFX_EXTENSION_MODULE@@H@Z 67db4988     mfc90d:mfc90d.dll
 0002:0000098c       __imp_?AfxInitExtensionModule@@YGHAAUAFX_EXTENSION_MODULE@@PAUHINSTANCE__@@@Z 67db498c     mfc90d:mfc90d.dll
 0002:00000990       __imp_?AdjustRect@CRectTracker@@UAEXHPAUtagRECT@@@Z 67db4990     mfc90d:mfc90d.dll
 0002:00000994       __imp_??1CSpinButtonCtrl@@UAE@XZ 67db4994     mfc90d:mfc90d.dll
 0002:00000998       __imp_?DDV_MinMaxFloat@@YGXPAVCDataExchange@@ABMMM@Z 67db4998     mfc90d:mfc90d.dll
 0002:0000099c       __imp_?DDX_Text@@YGXPAVCDataExchange@@HAAK@Z 67db499c     mfc90d:mfc90d.dll
 0002:000009a0       __imp_??0CSpinButtonCtrl@@QAE@XZ 67db49a0     mfc90d:mfc90d.dll
 0002:000009a4       __imp_?WriteProfileInt@CWinApp@@QAEHPBD0H@Z 67db49a4     mfc90d:mfc90d.dll
 0002:000009a8       __imp_?GetProfileStringA@CWinApp@@QAE?AV?$CStringT@DV?$StrTraitMFC_DLL@DV?$ChTraitsCRT@D@ATL@@@@@ATL@@PBD00@Z 67db49a8     mfc90d:mfc90d.dll
 0002:000009ac       __imp_??4?$CStringT@DV?$StrTraitMFC_DLL@DV?$ChTraitsCRT@D@ATL@@@@@ATL@@QAEAAV01@ABV01@@Z 67db49ac     mfc90d:mfc90d.dll
 0002:000009b0       __imp_?GetProfileIntA@CWinApp@@QAEIPBD0H@Z 67db49b0     mfc90d:mfc90d.dll
 0002:000009b4       __imp_??B?$CSimpleStringT@D$00@ATL@@QBEPBDXZ 67db49b4     mfc90d:mfc90d.dll
 0002:000009b8       __imp_??4?$CStringT@DV?$StrTraitMFC_DLL@DV?$ChTraitsCRT@D@ATL@@@@@ATL@@QAEAAV01@PBD@Z 67db49b8     mfc90d:mfc90d.dll
 0002:000009bc       __imp_??0CComboBox@@QAE@XZ 67db49bc     mfc90d:mfc90d.dll
 0002:000009c0       __imp_??0CListBox@@QAE@XZ  67db49c0     mfc90d:mfc90d.dll
 0002:000009c4       __imp_??0?$CStringT@DV?$StrTraitMFC_DLL@DV?$ChTraitsCRT@D@ATL@@@@@ATL@@QAE@XZ 67db49c4     mfc90d:mfc90d.dll
 0002:000009c8       __imp_?AfxGetApp@@YGPAVCWinApp@@XZ 67db49c8     mfc90d:mfc90d.dll
 0002:000009cc       __imp_??1CComboBox@@UAE@XZ 67db49cc     mfc90d:mfc90d.dll
 0002:000009d0       __imp_??1CListBox@@UAE@XZ  67db49d0     mfc90d:mfc90d.dll
 0002:000009d4       __imp_??1?$CStringT@DV?$StrTraitMFC_DLL@DV?$ChTraitsCRT@D@ATL@@@@@ATL@@QAE@XZ 67db49d4     mfc90d:mfc90d.dll
 0002:000009d8       __imp_??_V@YAXPAX@Z        67db49d8     mfc90d:mfc90d.dll
 0002:000009dc       __imp_??1CDialog@@UAE@XZ   67db49dc     mfc90d:mfc90d.dll
 0002:000009e0       __imp_??3CObject@@SGXPAX@Z 67db49e0     mfc90d:mfc90d.dll
 0002:000009e4       __imp_?OnTimer@CWnd@@IAEXI@Z 67db49e4     mfc90d:mfc90d.dll
 0002:000009e8       __imp_?KillTimer@CWnd@@QAEHI@Z 67db49e8     mfc90d:mfc90d.dll
 0002:000009ec       __imp_?OnInitDialog@CDialog@@UAEHXZ 67db49ec     mfc90d:mfc90d.dll
 0002:000009f0       __imp_?GetWindowRect@CWnd@@QBEXPAUtagRECT@@@Z 67db49f0     mfc90d:mfc90d.dll
 0002:000009f4       __imp_?SetWindowPos@CWnd@@QAEHPBV1@HHHHI@Z 67db49f4     mfc90d:mfc90d.dll
 0002:000009f8       __imp_?SetTimer@CWnd@@QAEIIIP6GXPAUHWND__@@IIK@Z@Z 67db49f8     mfc90d:mfc90d.dll
 0002:000009fc       __imp_?GetThisMessageMap@CDialog@@KGPBUAFX_MSGMAP@@XZ 67db49fc     mfc90d:mfc90d.dll
 0002:00000a00       __imp_?DoDataExchange@CWnd@@MAEXPAVCDataExchange@@@Z 67db4a00     mfc90d:mfc90d.dll
 0002:00000a04       __imp_?PreInitDialog@CDialog@@MAEXXZ 67db4a04     mfc90d:mfc90d.dll
 0002:00000a08       __imp_?OnCancel@CDialog@@MAEXXZ 67db4a08     mfc90d:mfc90d.dll
 0002:00000a0c       __imp_?OnOK@CDialog@@MAEXXZ 67db4a0c     mfc90d:mfc90d.dll
 0002:00000a10       __imp_?OnSetFont@CDialog@@UAEXPAVCFont@@@Z 67db4a10     mfc90d:mfc90d.dll
 0002:00000a14       __imp_?DoModal@CDialog@@UAEHXZ 67db4a14     mfc90d:mfc90d.dll
 0002:00000a18       __imp_?CreateIndirect@CDialog@@UAEHPBUDLGTEMPLATE@@PAVCWnd@@PAX@Z 67db4a18     mfc90d:mfc90d.dll
 0002:00000a1c       __imp_?CreateIndirect@CDialog@@UAEHPAXPAVCWnd@@@Z 67db4a1c     mfc90d:mfc90d.dll
 0002:00000a20       __imp_?Create@CDialog@@UAEHPBDPAVCWnd@@@Z 67db4a20     mfc90d:mfc90d.dll
 0002:00000a24       __imp_?Create@CDialog@@UAEHIPAVCWnd@@@Z 67db4a24     mfc90d:mfc90d.dll
 0002:00000a28       __imp_?GetOccDialogInfo@CDialog@@MAEPAU_AFX_OCC_DIALOG_INFO@@XZ 67db4a28     mfc90d:mfc90d.dll
 0002:00000a2c       __imp_?SetOccDialogInfo@CDialog@@MAEHPAU_AFX_OCC_DIALOG_INFO@@@Z 67db4a2c     mfc90d:mfc90d.dll
 0002:00000a30       __imp_?CreateControlSite@CWnd@@MAEHPAVCOleControlContainer@@PAPAVCOleControlSite@@IABU_GUID@@@Z 67db4a30     mfc90d:mfc90d.dll
 0002:00000a34       __imp_?CreateControlContainer@CWnd@@MAEHPAPAVCOleControlContainer@@@Z 67db4a34     mfc90d:mfc90d.dll
 0002:00000a38       __imp_?IsFrameWnd@CWnd@@UBEHXZ 67db4a38     mfc90d:mfc90d.dll
 0002:00000a3c       __imp_?CheckAutoCenter@CDialog@@UAEHXZ 67db4a3c     mfc90d:mfc90d.dll
 0002:00000a40       __imp_?OnChildNotify@CWnd@@MAEHIIJPAJ@Z 67db4a40     mfc90d:mfc90d.dll
 0002:00000a44       __imp_?PostNcDestroy@CWnd@@MAEXXZ 67db4a44     mfc90d:mfc90d.dll
 0002:00000a48       __imp_?DefWindowProcA@CWnd@@MAEJIIJ@Z 67db4a48     mfc90d:mfc90d.dll
 0002:00000a4c       __imp_?OnWndMsg@CWnd@@MAEHIIJPAJ@Z 67db4a4c     mfc90d:mfc90d.dll
 0002:00000a50       __imp_?WindowProc@CWnd@@MAEJIIJ@Z 67db4a50     mfc90d:mfc90d.dll
 0002:00000a54       __imp_?OnAmbientProperty@CWnd@@UAEHPAVCOleControlSite@@JPAUtagVARIANT@@@Z 67db4a54     mfc90d:mfc90d.dll
 0002:00000a58       __imp_?PreTranslateMessage@CDialog@@UAEHPAUtagMSG@@@Z 67db4a58     mfc90d:mfc90d.dll
 0002:00000a5c       __imp_?EndModalState@CWnd@@UAEXXZ 67db4a5c     mfc90d:mfc90d.dll
 0002:00000a60       __imp_?BeginModalState@CWnd@@UAEXXZ 67db4a60     mfc90d:mfc90d.dll
 0002:00000a64       __imp_?GetSuperWndProcAddr@CWnd@@MAEPAP6GJPAUHWND__@@IIJ@ZXZ 67db4a64     mfc90d:mfc90d.dll
 0002:00000a68       __imp_?OnNotify@CWnd@@MAEHIJPAJ@Z 67db4a68     mfc90d:mfc90d.dll
 0002:00000a6c       __imp_?OnCommand@CWnd@@MAEHIJ@Z 67db4a6c     mfc90d:mfc90d.dll
 0002:00000a70       __imp_?CreateAccessibleProxy@CWnd@@UAEJIJPAJ@Z 67db4a70     mfc90d:mfc90d.dll
 0002:00000a74       __imp_?SetProxy@CWnd@@UAEJPAUIAccessibleProxy@@@Z 67db4a74     mfc90d:mfc90d.dll
 0002:00000a78       __imp_?put_accValue@CWnd@@UAEJUtagVARIANT@@PA_W@Z 67db4a78     mfc90d:mfc90d.dll
 0002:00000a7c       __imp_?put_accName@CWnd@@UAEJUtagVARIANT@@PA_W@Z 67db4a7c     mfc90d:mfc90d.dll
 0002:00000a80       __imp_?accDoDefaultAction@CWnd@@UAEJUtagVARIANT@@@Z 67db4a80     mfc90d:mfc90d.dll
 0002:00000a84       __imp_?accHitTest@CWnd@@UAEJJJPAUtagVARIANT@@@Z 67db4a84     mfc90d:mfc90d.dll
 0002:00000a88       __imp_?accNavigate@CWnd@@UAEJJUtagVARIANT@@PAU2@@Z 67db4a88     mfc90d:mfc90d.dll
 0002:00000a8c       __imp_?accLocation@CWnd@@UAEJPAJ000UtagVARIANT@@@Z 67db4a8c     mfc90d:mfc90d.dll
 0002:00000a90       __imp_?accSelect@CWnd@@UAEJJUtagVARIANT@@@Z 67db4a90     mfc90d:mfc90d.dll
 0002:00000a94       __imp_?get_accDefaultAction@CWnd@@UAEJUtagVARIANT@@PAPA_W@Z 67db4a94     mfc90d:mfc90d.dll
 0002:00000a98       __imp_?get_accSelection@CWnd@@UAEJPAUtagVARIANT@@@Z 67db4a98     mfc90d:mfc90d.dll
 0002:00000a9c       __imp_?get_accFocus@CWnd@@UAEJPAUtagVARIANT@@@Z 67db4a9c     mfc90d:mfc90d.dll
 0002:00000aa0       __imp_?get_accKeyboardShortcut@CWnd@@UAEJUtagVARIANT@@PAPA_W@Z 67db4aa0     mfc90d:mfc90d.dll
 0002:00000aa4       __imp_?get_accHelpTopic@CWnd@@UAEJPAPA_WUtagVARIANT@@PAJ@Z 67db4aa4     mfc90d:mfc90d.dll
 0002:00000aa8       __imp_?get_accHelp@CWnd@@UAEJUtagVARIANT@@PAPA_W@Z 67db4aa8     mfc90d:mfc90d.dll
 0002:00000aac       __imp_?get_accState@CWnd@@UAEJUtagVARIANT@@PAU2@@Z 67db4aac     mfc90d:mfc90d.dll
 0002:00000ab0       __imp_?GetItemData@CComboBox@@QBEKH@Z 67db4ab0     mfc90d:mfc90d.dll
 0002:00000ab4       __imp_?GetDlgItemTextA@CWnd@@QBEHHPADH@Z 67db4ab4     mfc90d:mfc90d.dll
 0002:00000ab8       __imp_??0?$CStringT@DV?$StrTraitMFC_DLL@DV?$ChTraitsCRT@D@ATL@@@@@ATL@@QAE@ABV01@@Z 67db4ab8     mfc90d:mfc90d.dll
 0002:00000abc       __imp_?GetBuffer@?$CSimpleStringT@D$00@ATL@@QAEPADH@Z 67db4abc     mfc90d:mfc90d.dll
 0002:00000ac0       __imp_?ResetContent@CComboBox@@QAEXXZ 67db4ac0     mfc90d:mfc90d.dll
 0002:00000ac4       __imp_?AddString@CComboBox@@QAEHPBD@Z 67db4ac4     mfc90d:mfc90d.dll
 0002:00000ac8       __imp_?GetCount@CComboBox@@QBEHXZ 67db4ac8     mfc90d:mfc90d.dll
 0002:00000acc       __imp_?get_accRole@CWnd@@UAEJUtagVARIANT@@PAU2@@Z 67db4acc     mfc90d:mfc90d.dll
 0002:00000ad0       __imp_?get_accValue@CWnd@@UAEJUtagVARIANT@@PAPA_W@Z 67db4ad0     mfc90d:mfc90d.dll
 0002:00000ad4       __imp_?get_accName@CWnd@@UAEJUtagVARIANT@@PAPA_W@Z 67db4ad4     mfc90d:mfc90d.dll
 0002:00000ad8       __imp_?get_accChild@CWnd@@UAEJUtagVARIANT@@PAPAUIDispatch@@@Z 67db4ad8     mfc90d:mfc90d.dll
 0002:00000adc       __imp_?get_accParent@CWnd@@UAEJPAPAUIDispatch@@@Z 67db4adc     mfc90d:mfc90d.dll
 0002:00000ae0       __imp_?EnsureStdObj@CWnd@@UAEJXZ 67db4ae0     mfc90d:mfc90d.dll
 0002:00000ae4       __imp_??2@YAPAXI@Z         67db4ae4     mfc90d:mfc90d.dll
 0002:00000ae8       __imp_?EndModalLoop@CWnd@@UAEXH@Z 67db4ae8     mfc90d:mfc90d.dll
 0002:00000aec       __imp_?ContinueModal@CWnd@@UAEHXZ 67db4aec     mfc90d:mfc90d.dll
 0002:00000af0       __imp_?WinHelpInternal@CWnd@@UAEXKI@Z 67db4af0     mfc90d:mfc90d.dll
 0002:00000af4       __imp_?HtmlHelpA@CWnd@@UAEXKI@Z 67db4af4     mfc90d:mfc90d.dll
 0002:00000af8       __imp_?WinHelpA@CWnd@@UAEXKI@Z 67db4af8     mfc90d:mfc90d.dll
 0002:00000afc       __imp_?GetScrollBarCtrl@CWnd@@UBEPAVCScrollBar@@H@Z 67db4afc     mfc90d:mfc90d.dll
 0002:00000b00       __imp_?OnToolHitTest@CWnd@@UBEHVCPoint@@PAUtagTOOLINFOA@@@Z 67db4b00     mfc90d:mfc90d.dll
 0002:00000b04       __imp_?SetMenu@CWnd@@UAEHPAVCMenu@@@Z 67db4b04     mfc90d:mfc90d.dll
 0002:00000b08       __imp_?GetMenu@CWnd@@UBEPAVCMenu@@XZ 67db4b08     mfc90d:mfc90d.dll
 0002:00000b0c       __imp_?CalcWindowRect@CWnd@@UAEXPAUtagRECT@@I@Z 67db4b0c     mfc90d:mfc90d.dll
 0002:00000b10       __imp_?PreCreateWindow@CWnd@@UAEHAAUtagCREATESTRUCTA@@@Z 67db4b10     mfc90d:mfc90d.dll
 0002:00000b14       __imp_?DestroyWindow@CWnd@@UAEHXZ 67db4b14     mfc90d:mfc90d.dll
 0002:00000b18       __imp_?CreateEx@CWnd@@UAEHKPBD0KHHHHPAUHWND__@@PAUHMENU__@@PAX@Z 67db4b18     mfc90d:mfc90d.dll
 0002:00000b1c       __imp_?CreateEx@CWnd@@UAEHKPBD0KABUtagRECT@@PAV1@IPAX@Z 67db4b1c     mfc90d:mfc90d.dll
 0002:00000b20       __imp_?Create@CWnd@@UAEHPBD0KABUtagRECT@@PAV1@IPAUCCreateContext@@@Z 67db4b20     mfc90d:mfc90d.dll
 0002:00000b24       __imp_?PreSubclassWindow@CWnd@@UAEXXZ 67db4b24     mfc90d:mfc90d.dll
 0002:00000b28       __imp_?GetConnectionHook@CCmdTarget@@MAEPAUIConnectionPoint@@ABU_GUID@@@Z 67db4b28     mfc90d:mfc90d.dll
 0002:00000b2c       __imp_?GetExtraConnectionPoints@CCmdTarget@@MAEHPAVCPtrArray@@@Z 67db4b2c     mfc90d:mfc90d.dll
 0002:00000b30       __imp_?GetInterfaceHook@CCmdTarget@@UAEPAUIUnknown@@PBX@Z 67db4b30     mfc90d:mfc90d.dll
 0002:00000b34       __imp_?OnCreateAggregates@CCmdTarget@@UAEHXZ 67db4b34     mfc90d:mfc90d.dll
 0002:00000b38       __imp_?GetEventSinkMap@CCmdTarget@@MBEPBUAFX_EVENTSINKMAP@@XZ 67db4b38     mfc90d:mfc90d.dll
 0002:00000b3c       __imp_?GetInterfaceMap@CWnd@@MBEPBUAFX_INTERFACEMAP@@XZ 67db4b3c     mfc90d:mfc90d.dll
 0002:00000b40       __imp_?GetConnectionMap@CCmdTarget@@MBEPBUAFX_CONNECTIONMAP@@XZ 67db4b40     mfc90d:mfc90d.dll
 0002:00000b44       __imp_?GetDispatchMap@CCmdTarget@@MBEPBUAFX_DISPMAP@@XZ 67db4b44     mfc90d:mfc90d.dll
 0002:00000b48       __imp_?GetCommandMap@CCmdTarget@@MBEPBUAFX_OLECMDMAP@@XZ 67db4b48     mfc90d:mfc90d.dll
 0002:00000b4c       __imp_?GetTypeLib@CCmdTarget@@UAEJKPAPAUITypeLib@@@Z 67db4b4c     mfc90d:mfc90d.dll
 0002:00000b50       __imp_?GetTypeLibCache@CCmdTarget@@UAEPAVCTypeLibCache@@XZ 67db4b50     mfc90d:mfc90d.dll
 0002:00000b54       __imp_?GetTypeInfoCount@CCmdTarget@@UAEIXZ 67db4b54     mfc90d:mfc90d.dll
 0002:00000b58       __imp_?GetDispatchIID@CCmdTarget@@UAEHPAU_GUID@@@Z 67db4b58     mfc90d:mfc90d.dll
 0002:00000b5c       __imp_?IsInvokeAllowed@CCmdTarget@@UAEHJ@Z 67db4b5c     mfc90d:mfc90d.dll
 0002:00000b60       __imp_?OnFinalRelease@CWnd@@UAEXXZ 67db4b60     mfc90d:mfc90d.dll
 0002:00000b64       __imp_?OnCmdMsg@CDialog@@UAEHIHPAXPAUAFX_CMDHANDLERINFO@@@Z 67db4b64     mfc90d:mfc90d.dll
 0002:00000b68       __imp_?Dump@CDialog@@UBEXAAVCDumpContext@@@Z 67db4b68     mfc90d:mfc90d.dll
 0002:00000b6c       __imp_?AssertValid@CDialog@@UBEXXZ 67db4b6c     mfc90d:mfc90d.dll
 0002:00000b70       __imp_?Serialize@CObject@@UAEXAAVCArchive@@@Z 67db4b70     mfc90d:mfc90d.dll
 0002:00000b74       __imp_?GetRuntimeClass@CDialog@@UBEPAUCRuntimeClass@@XZ 67db4b74     mfc90d:mfc90d.dll
 0002:00000b78       __imp_?SetItemData@CComboBox@@QAEHHK@Z 67db4b78     mfc90d:mfc90d.dll
 0002:00000b7c       __imp_?SelectString@CComboBox@@QAEHHPBD@Z 67db4b7c     mfc90d:mfc90d.dll
 0002:00000b80       __imp_?SetCurSel@CComboBox@@QAEHH@Z 67db4b80     mfc90d:mfc90d.dll
 0002:00000b84       __imp_?GetLBText@CComboBox@@QBEXHAAV?$CStringT@DV?$StrTraitMFC_DLL@DV?$ChTraitsCRT@D@ATL@@@@@ATL@@@Z 67db4b84     mfc90d:mfc90d.dll
 0002:00000b88       __imp_?SetDlgItemTextA@CWnd@@QAEXHPBD@Z 67db4b88     mfc90d:mfc90d.dll
 0002:00000b8c       __imp_?DDX_Control@@YGXPAVCDataExchange@@HAAVCWnd@@@Z 67db4b8c     mfc90d:mfc90d.dll
 0002:00000b90       __imp_?DDX_CBString@@YGXPAVCDataExchange@@HAAV?$CStringT@DV?$StrTraitMFC_DLL@DV?$ChTraitsCRT@D@ATL@@@@@ATL@@@Z 67db4b90     mfc90d:mfc90d.dll
 0002:00000b94       __imp_?DDX_CBIndex@@YGXPAVCDataExchange@@HAAH@Z 67db4b94     mfc90d:mfc90d.dll
 0002:00000b98       __imp_?DDX_Check@@YGXPAVCDataExchange@@HAAH@Z 67db4b98     mfc90d:mfc90d.dll
 0002:00000b9c       __imp_?OnFileNameOK@CFileDialog@@MAEHXZ 67db4b9c     mfc90d:mfc90d.dll
 0002:00000ba0       __imp_?WriteProfileStringA@CWinApp@@QAEHPBD00@Z 67db4ba0     mfc90d:mfc90d.dll
 0002:00000ba4       __imp_??0CDialog@@QAE@IPAVCWnd@@@Z 67db4ba4     mfc90d:mfc90d.dll
 0002:00000ba8       __imp_??3@YAXPAX@Z         67db4ba8     mfc90d:mfc90d.dll
 0002:00000bac       __imp_?get_accDescription@CWnd@@UAEJUtagVARIANT@@PAPA_W@Z 67db4bac     mfc90d:mfc90d.dll
 0002:00000bb0       __imp_?get_accChildCount@CWnd@@UAEJPAJ@Z 67db4bb0     mfc90d:mfc90d.dll
 0002:00000bb4       \177mfc90d_NULL_THUNK_DATA 67db4bb4     mfc90d:mfc90d.dll
 0002:00000bb8       ___xc_a                    67db4bb8     msvcrtd:cinitexe.obj
 0002:00000c40       ___xc_z                    67db4c40     msvcrtd:cinitexe.obj
 0002:00000c44       ___xi_a                    67db4c44     msvcrtd:cinitexe.obj
 0002:00000c50       ___xi_z                    67db4c50     msvcrtd:cinitexe.obj
 0002:00000c84       ??_7CAbortDlg@@6B@         67db4c84     AbortDlg.obj
 0002:00000ff8       ??_7CAcqConfigDlg@@6BSapManager@@@ 67db4ff8     AcqConfigDlg.obj
 0002:00001004       ??_7CAcqConfigDlg@@6BCDialog@@@ 67db5004     AcqConfigDlg.obj
 0002:00001244       ??_7CAcqDlg@@6BSapManager@@@ 67db5244     AcqDlg.obj
 0002:0000124c       ??_7CAcqDlg@@6BCDialog@@@  67db524c     AcqDlg.obj
 0002:000014ac       ??_7CAScanDlg@@6BSapManager@@@ 67db54ac     AScanDlg.obj
 0002:000014b4       ??_7CAScanDlg@@6BCDialog@@@ 67db54b4     AScanDlg.obj
 0002:0000179c       ??_7CAviFileDlg@@6B@       67db579c     AviFileDlg.obj
 0002:00001a0c       __real@3f800000            67db5a0c     BayerDlg.obj
 0002:00001a14       ??_7CBayerOptionsDlg@@6BSapManager@@@ 67db5a14     BayerDlg.obj
 0002:00001a1c       ??_7CBayerOptionsDlg@@6BCDialog@@@ 67db5a1c     BayerDlg.obj
 0002:00001e2c       ??_7CBufDlg@@6B@           67db5e2c     BufDlg.obj
 0002:000020c4       ??_SSapCab@@6B@            67db60c4     CabDlg.obj
 0002:00002140       ??_7CCabDlg@@6BSapManager@@@ 67db6140     CabDlg.obj
 0002:0000214c       ??_7CCabDlg@@6BCDialog@@@  67db614c     CabDlg.obj
 0002:000026cc       ??_7CCamVicDlg@@6BSapManager@@@ 67db66cc     CamVicDlg.obj
 0002:000026d4       ??_7CCamVicDlg@@6BCDialog@@@ 67db66d4     CamVicDlg.obj
 0002:00002958       ??_7CCompDlg@@6BSapManager@@@ 67db6958     CompDlg.obj
 0002:00002964       ??_7CCompDlg@@6BCDialog@@@ 67db6964     CompDlg.obj
 0002:00003888       ??_7CFlatFieldDlg@@6BSapManager@@@ 67db7888     FlatFieldDlg.obj
 0002:00003894       ??_7CFlatFieldDlg@@6BCDialog@@@ 67db7894     FlatFieldDlg.obj
 0002:00003ac8       __real@4000000000000000    67db7ac8     FlatFieldDlg.obj
 0002:00003ad4       ??_SSapBuffer@@6B@         67db7ad4     FlatFieldDlg.obj
 0002:00003cd0       __real@3ff0000000000000    67db7cd0     FlatFieldDlg.obj
 0002:00003df4       ??_7CGioBidirectionalDlg@@6B@ 67db7df4     GioBidirectionalDlg.obj
 0002:0000441c       ??_7CGioInputDlg@@6B@      67db841c     GioInputDlg.obj
 0002:000047ac       ??_7CGioOutputDlg@@6B@     67db87ac     GioOutputDlg.obj
 0002:00004c6c       ??_7CImageWnd@@6B@         67db8c6c     ImageWnd.obj
 0002:00004c74       ??_7CSapRectTracker@@6B@   67db8c74     ImageWnd.obj
 0002:00004c90       __real@3fe0000000000000    67db8c90     ImageWnd.obj
 0002:00004c98       ?_interfaceEntries@CJpegFileDlg@@0QBUAFX_INTERFACEMAP_ENTRY@@B 67db8c98     JpegFileDlg.obj
 0002:00004ca8       ?_dispatchEntries@CJpegFileDlg@@0QBUAFX_DISPMAP_ENTRY@@B 67db8ca8     JpegFileDlg.obj
 0002:00004d08       ?dispatchMap@CJpegFileDlg@@1UAFX_DISPMAP@@B 67db8d08     JpegFileDlg.obj
 0002:00004d18       ?interfaceMap@CJpegFileDlg@@1UAFX_INTERFACEMAP@@B 67db8d18     JpegFileDlg.obj
 0002:00004d24       ??_7CJpegFileDlg@@6B@      67db8d24     JpegFileDlg.obj
 0002:0000529c       ?classCLoadSaveDlg@CLoadSaveDlg@@2UCRuntimeClass@@B 67db929c     LoadSaveDlg.obj
 0002:000052bc       ??_7CLoadSaveDlg@@6B@      67db92bc     LoadSaveDlg.obj
 0002:000054c0       ??_7CLScanDlg@@6BSapManager@@@ 67db94c0     LScanDlg.obj
 0002:000054cc       ??_7CLScanDlg@@6BCDialog@@@ 67db94cc     LScanDlg.obj
 0002:00005704       ??_7CPixProAbsSubDlg@@6B@  67db9704     PixProAbsSubDlg.obj
 0002:00005a04       ??_7CPixProDlg@@6B@        67db9a04     PixProDlg.obj
 0002:00005bf4       ??_7CPixProIntScaleDlg@@6B@ 67db9bf4     PixProIntScaleDlg.obj
 0002:00005dcc       ??_7CPixProRefImageDlg@@6B@ 67db9dcc     PixProRefImageDlg.obj
 0002:00005f8c       ??_7CPixProUflowSubDlg@@6B@ 67db9f8c     PixProUflowSubDlg.obj
 0002:0000617c       ??_7CPixProWAvgDlg@@6B@    67dba17c     PixProWAvgDlg.obj
 0002:0000655c       ??_7CRawFileDlg@@6B@       67dba55c     RawFileDlg.obj
 0002:00006bf4       __pRawDllMain              67dbabf4     SapClassGui.obj
 0002:00006c68       ?_Min@?$AtlLimits@H@ATL@@2HB 67dbac68     SapClassGui.obj
 0002:00006c6c       ?_Max@?$AtlLimits@H@ATL@@2HB 67dbac6c     SapClassGui.obj
 0002:00006c70       ?_Min@?$AtlLimits@I@ATL@@2IB 67dbac70     SapClassGui.obj
 0002:00006c74       ?_Max@?$AtlLimits@I@ATL@@2IB 67dbac74     SapClassGui.obj
 0002:00006c78       ?_Min@?$AtlLimits@J@ATL@@2JB 67dbac78     SapClassGui.obj
 0002:00006c7c       ?_Max@?$AtlLimits@J@ATL@@2JB 67dbac7c     SapClassGui.obj
 0002:00006c80       ?_Min@?$AtlLimits@K@ATL@@2KB 67dbac80     SapClassGui.obj
 0002:00006c84       ?_Max@?$AtlLimits@K@ATL@@2KB 67dbac84     SapClassGui.obj
 0002:00006c88       ?_Min@?$AtlLimits@_J@ATL@@2_JB 67dbac88     SapClassGui.obj
 0002:00006c90       ?_Max@?$AtlLimits@_J@ATL@@2_JB 67dbac90     SapClassGui.obj
 0002:00006c98       ?_Min@?$AtlLimits@_K@ATL@@2_KB 67dbac98     SapClassGui.obj
 0002:00006ca0       ?_Max@?$AtlLimits@_K@ATL@@2_KB 67dbaca0     SapClassGui.obj
 0002:00006ca8       ?VT@?$CVarTypeInfo@D@ATL@@2GB 67dbaca8     SapClassGui.obj
 0002:00006cac       ?pmField@?$CVarTypeInfo@D@ATL@@2QQtagVARIANT@@DQ3@ 67dbacac     SapClassGui.obj
 0002:00006cb0       ?VT@?$CVarTypeInfo@E@ATL@@2GB 67dbacb0     SapClassGui.obj
 0002:00006cb4       ?pmField@?$CVarTypeInfo@E@ATL@@2QQtagVARIANT@@EQ3@ 67dbacb4     SapClassGui.obj
 0002:00006cb8       ?VT@?$CVarTypeInfo@PAD@ATL@@2GB 67dbacb8     SapClassGui.obj
 0002:00006cbc       ?pmField@?$CVarTypeInfo@PAD@ATL@@2QQtagVARIANT@@PADQ3@ 67dbacbc     SapClassGui.obj
 0002:00006cc0       ?VT@?$CVarTypeInfo@PAE@ATL@@2GB 67dbacc0     SapClassGui.obj
 0002:00006cc4       ?pmField@?$CVarTypeInfo@PAE@ATL@@2QQtagVARIANT@@PAEQ3@ 67dbacc4     SapClassGui.obj
 0002:00006cc8       ?VT@?$CVarTypeInfo@F@ATL@@2GB 67dbacc8     SapClassGui.obj
 0002:00006ccc       ?pmField@?$CVarTypeInfo@F@ATL@@2QQtagVARIANT@@FQ3@ 67dbaccc     SapClassGui.obj
 0002:00006cd0       ?VT@?$CVarTypeInfo@PAF@ATL@@2GB 67dbacd0     SapClassGui.obj
 0002:00006cd4       ?pmField@?$CVarTypeInfo@PAF@ATL@@2QQtagVARIANT@@PAFQ3@ 67dbacd4     SapClassGui.obj
 0002:00006cd8       ?VT@?$CVarTypeInfo@G@ATL@@2GB 67dbacd8     SapClassGui.obj
 0002:00006cdc       ?pmField@?$CVarTypeInfo@G@ATL@@2QQtagVARIANT@@GQ3@ 67dbacdc     SapClassGui.obj
 0002:00006ce0       ?VT@?$CVarTypeInfo@PAG@ATL@@2GB 67dbace0     SapClassGui.obj
 0002:00006ce4       ?pmField@?$CVarTypeInfo@PAG@ATL@@2QQtagVARIANT@@PAGQ3@ 67dbace4     SapClassGui.obj
 0002:00006ce8       ?VT@?$CVarTypeInfo@H@ATL@@2GB 67dbace8     SapClassGui.obj
 0002:00006cec       ?pmField@?$CVarTypeInfo@H@ATL@@2QQtagVARIANT@@HQ3@ 67dbacec     SapClassGui.obj
 0002:00006cf0       ?VT@?$CVarTypeInfo@PAH@ATL@@2GB 67dbacf0     SapClassGui.obj
 0002:00006cf4       ?pmField@?$CVarTypeInfo@PAH@ATL@@2QQtagVARIANT@@PAHQ3@ 67dbacf4     SapClassGui.obj
 0002:00006cf8       ?VT@?$CVarTypeInfo@I@ATL@@2GB 67dbacf8     SapClassGui.obj
 0002:00006cfc       ?pmField@?$CVarTypeInfo@I@ATL@@2QQtagVARIANT@@IQ3@ 67dbacfc     SapClassGui.obj
 0002:00006d00       ?VT@?$CVarTypeInfo@PAI@ATL@@2GB 67dbad00     SapClassGui.obj
 0002:00006d04       ?pmField@?$CVarTypeInfo@PAI@ATL@@2QQtagVARIANT@@PAIQ3@ 67dbad04     SapClassGui.obj
 0002:00006d08       ?VT@?$CVarTypeInfo@J@ATL@@2GB 67dbad08     SapClassGui.obj
 0002:00006d0c       ?pmField@?$CVarTypeInfo@J@ATL@@2QQtagVARIANT@@JQ3@ 67dbad0c     SapClassGui.obj
 0002:00006d10       ?VT@?$CVarTypeInfo@PAJ@ATL@@2GB 67dbad10     SapClassGui.obj
 0002:00006d14       ?pmField@?$CVarTypeInfo@PAJ@ATL@@2QQtagVARIANT@@PAJQ3@ 67dbad14     SapClassGui.obj
 0002:00006d18       ?VT@?$CVarTypeInfo@K@ATL@@2GB 67dbad18     SapClassGui.obj
 0002:00006d1c       ?pmField@?$CVarTypeInfo@K@ATL@@2QQtagVARIANT@@KQ3@ 67dbad1c     SapClassGui.obj
 0002:00006d20       ?VT@?$CVarTypeInfo@PAK@ATL@@2GB 67dbad20     SapClassGui.obj
 0002:00006d24       ?pmField@?$CVarTypeInfo@PAK@ATL@@2QQtagVARIANT@@PAKQ3@ 67dbad24     SapClassGui.obj
 0002:00006d28       ?VT@?$CVarTypeInfo@_J@ATL@@2GB 67dbad28     SapClassGui.obj
 0002:00006d2c       ?pmField@?$CVarTypeInfo@_J@ATL@@2QQtagVARIANT@@_JQ3@ 67dbad2c     SapClassGui.obj
 0002:00006d30       ?VT@?$CVarTypeInfo@PA_J@ATL@@2GB 67dbad30     SapClassGui.obj
 0002:00006d34       ?pmField@?$CVarTypeInfo@PA_J@ATL@@2QQtagVARIANT@@PA_JQ3@ 67dbad34     SapClassGui.obj
 0002:00006d38       ?VT@?$CVarTypeInfo@_K@ATL@@2GB 67dbad38     SapClassGui.obj
 0002:00006d3c       ?pmField@?$CVarTypeInfo@_K@ATL@@2QQtagVARIANT@@_KQ3@ 67dbad3c     SapClassGui.obj
 0002:00006d40       ?VT@?$CVarTypeInfo@PA_K@ATL@@2GB 67dbad40     SapClassGui.obj
 0002:00006d44       ?pmField@?$CVarTypeInfo@PA_K@ATL@@2QQtagVARIANT@@PA_KQ3@ 67dbad44     SapClassGui.obj
 0002:00006d48       ?VT@?$CVarTypeInfo@M@ATL@@2GB 67dbad48     SapClassGui.obj
 0002:00006d4c       ?pmField@?$CVarTypeInfo@M@ATL@@2QQtagVARIANT@@MQ3@ 67dbad4c     SapClassGui.obj
 0002:00006d50       ?VT@?$CVarTypeInfo@PAM@ATL@@2GB 67dbad50     SapClassGui.obj
 0002:00006d54       ?pmField@?$CVarTypeInfo@PAM@ATL@@2QQtagVARIANT@@PAMQ3@ 67dbad54     SapClassGui.obj
 0002:00006d58       ?VT@?$CVarTypeInfo@N@ATL@@2GB 67dbad58     SapClassGui.obj
 0002:00006d5c       ?pmField@?$CVarTypeInfo@N@ATL@@2QQtagVARIANT@@NQ3@ 67dbad5c     SapClassGui.obj
 0002:00006d60       ?VT@?$CVarTypeInfo@PAN@ATL@@2GB 67dbad60     SapClassGui.obj
 0002:00006d64       ?pmField@?$CVarTypeInfo@PAN@ATL@@2QQtagVARIANT@@PANQ3@ 67dbad64     SapClassGui.obj
 0002:00006d68       ?VT@?$CVarTypeInfo@UtagVARIANT@@@ATL@@2GB 67dbad68     SapClassGui.obj
 0002:00006d6c       ?VT@?$CVarTypeInfo@PA_W@ATL@@2GB 67dbad6c     SapClassGui.obj
 0002:00006d70       ?pmField@?$CVarTypeInfo@PA_W@ATL@@2QQtagVARIANT@@PA_WQ3@ 67dbad70     SapClassGui.obj
 0002:00006d74       ?VT@?$CVarTypeInfo@PAPA_W@ATL@@2GB 67dbad74     SapClassGui.obj
 0002:00006d78       ?pmField@?$CVarTypeInfo@PAPA_W@ATL@@2QQtagVARIANT@@PAPA_WQ3@ 67dbad78     SapClassGui.obj
 0002:00006d7c       ?VT@?$CVarTypeInfo@PAUIUnknown@@@ATL@@2GB 67dbad7c     SapClassGui.obj
 0002:00006d80       ?pmField@?$CVarTypeInfo@PAUIUnknown@@@ATL@@2QQtagVARIANT@@PAUIUnknown@@Q3@ 67dbad80     SapClassGui.obj
 0002:00006d84       ?VT@?$CVarTypeInfo@PAPAUIUnknown@@@ATL@@2GB 67dbad84     SapClassGui.obj
 0002:00006d88       ?pmField@?$CVarTypeInfo@PAPAUIUnknown@@@ATL@@2QQtagVARIANT@@PAPAUIUnknown@@Q3@ 67dbad88     SapClassGui.obj
 0002:00006d8c       ?VT@?$CVarTypeInfo@PAUIDispatch@@@ATL@@2GB 67dbad8c     SapClassGui.obj
 0002:00006d90       ?pmField@?$CVarTypeInfo@PAUIDispatch@@@ATL@@2QQtagVARIANT@@PAUIDispatch@@Q3@ 67dbad90     SapClassGui.obj
 0002:00006d94       ?VT@?$CVarTypeInfo@PAPAUIDispatch@@@ATL@@2GB 67dbad94     SapClassGui.obj
 0002:00006d98       ?pmField@?$CVarTypeInfo@PAPAUIDispatch@@@ATL@@2QQtagVARIANT@@PAPAUIDispatch@@Q3@ 67dbad98     SapClassGui.obj
 0002:00006d9c       ?VT@?$CVarTypeInfo@TtagCY@@@ATL@@2GB 67dbad9c     SapClassGui.obj
 0002:00006da0       ?pmField@?$CVarTypeInfo@TtagCY@@@ATL@@2QQtagVARIANT@@TtagCY@@Q3@ 67dbada0     SapClassGui.obj
 0002:00006da4       ?VT@?$CVarTypeInfo@PATtagCY@@@ATL@@2GB 67dbada4     SapClassGui.obj
 0002:00006da8       ?pmField@?$CVarTypeInfo@PATtagCY@@@ATL@@2QQtagVARIANT@@PATtagCY@@Q3@ 67dbada8     SapClassGui.obj
 0002:00006dac       ?c_bIsMFCDLLTraits@?$_MFCDLLTraitsCheck@DV?$StrTraitMFC_DLL@DV?$ChTraitsCRT@D@ATL@@@@@_CSTRING_IMPL_@ATL@@2_NB 67dbadac     SapClassGui.obj
 0002:00006dad       ?c_bIsMFCDLLTraits@?$_MFCDLLTraitsCheck@_WV?$StrTraitMFC_DLL@_WV?$ChTraitsCRT@_W@ATL@@@@@_CSTRING_IMPL_@ATL@@2_NB 67dbadad     SapClassGui.obj
 0002:00006db0       ?generic@CArchiveException@@2HB 67dbadb0     SapClassGui.obj
 0002:00006db4       ?generic@CFileException@@2HB 67dbadb4     SapClassGui.obj
 0002:00006db8       ?Millisecond@CFileTime@ATL@@2_KB 67dbadb8     SapClassGui.obj
 0002:00006dc0       ?Second@CFileTime@ATL@@2_KB 67dbadc0     SapClassGui.obj
 0002:00006dc8       ?Minute@CFileTime@ATL@@2_KB 67dbadc8     SapClassGui.obj
 0002:00006dd0       ?Hour@CFileTime@ATL@@2_KB  67dbadd0     SapClassGui.obj
 0002:00006dd8       ?Day@CFileTime@ATL@@2_KB   67dbadd8     SapClassGui.obj
 0002:00006de0       ?Week@CFileTime@ATL@@2_KB  67dbade0     SapClassGui.obj
 0002:00006de8       ?szInvalidDateTime@ATL@@3QBDB 67dbade8     SapClassGui.obj
 0002:00006dec       ?szInvalidDateTimeSpan@ATL@@3QBDB 67dbadec     SapClassGui.obj
 0002:00006df0       ?CLSID_WinFormsControl@@3U_GUID@@B 67dbadf0     SapClassGui.obj
 0002:00006e04       ??_7CRectTracker@@6B@      67dbae04     SapClassGui.obj
 0002:00006e20       ??_7Thank_you@Define_the_symbol__ATL_MIXED@@6B@ 67dbae20     SapClassGui.obj
 0002:00006eac       ??_7CTiffFileDlg@@6B@      67dbaeac     TiffFileDlg.obj
 0002:00007098       __real@3a83126f            67dbb098     ViewDlg.obj
 0002:0000709c       __real@4cbebc20            67dbb09c     ViewDlg.obj
 0002:000071f8       __real@4059000000000000    67dbb1f8     ViewDlg.obj
 0002:00007200       __real@00000000            67dbb200     ViewDlg.obj
 0002:0000720c       ??_7CViewDlg@@6B@          67dbb20c     ViewDlg.obj
 0002:00007378       __real@42c80000            67dbb378     ViewDlg.obj
 0002:0000737c       ??_C@_07KJLOKDKB@TypeLib?$AA@ 67dbb37c     mfcs90d:nolib.obj
 0002:00007384       ??_C@_08KEKAJNJI@Software?$AA@ 67dbb384     mfcs90d:nolib.obj
 0002:00007390       ??_C@_06FDHFNJBJ@SYSTEM?$AA@ 67dbb390     mfcs90d:nolib.obj
 0002:00007398       ??_C@_08LOPHEHKG@SECURITY?$AA@ 67dbb398     mfcs90d:nolib.obj
 0002:000073a4       ??_C@_03DDIMFGBA@SAM?$AA@  67dbb3a4     mfcs90d:nolib.obj
 0002:000073a8       ??_C@_04IHBFOLAC@Mime?$AA@ 67dbb3a8     mfcs90d:nolib.obj
 0002:000073b0       ??_C@_08PPIOJEA@Hardware?$AA@ 67dbb3b0     mfcs90d:nolib.obj
 0002:000073bc       ??_C@_09JKPGEJCH@Interface?$AA@ 67dbb3bc     mfcs90d:nolib.obj
 0002:000073c8       ??_C@_08PICKODJL@FileType?$AA@ 67dbb3c8     mfcs90d:nolib.obj
 0002:000073d4       ??_C@_0BF@HDDNNDFH@Component?5Categories?$AA@ 67dbb3d4     mfcs90d:nolib.obj
 0002:000073ec       ??_C@_05GIBEAPNE@CLSID?$AA@ 67dbb3ec     mfcs90d:nolib.obj
 0002:000073f4       ??_C@_05PDIKPLII@AppID?$AA@ 67dbb3f4     mfcs90d:nolib.obj
 0002:000073fc       ??_C@_06JBKGCNBB@Delete?$AA@ 67dbb3fc     mfcs90d:nolib.obj
 0002:00007404       ??_C@_08KAAPDIAN@NoRemove?$AA@ 67dbb404     mfcs90d:nolib.obj
 0002:00007410       ??_C@_0M@DBGDLGLL@ForceRemove?$AA@ 67dbb410     mfcs90d:nolib.obj
 0002:0000741c       ??_C@_03LAIAPFCB@Val?$AA@  67dbb41c     mfcs90d:nolib.obj
 0002:00007420       ??_C@_01HMGJMAIH@B?$AA@    67dbb420     mfcs90d:nolib.obj
 0002:00007424       ??_C@_01CKDDGHAB@D?$AA@    67dbb424     mfcs90d:nolib.obj
 0002:00007428       ??_C@_01PLPBNMEI@M?$AA@    67dbb428     mfcs90d:nolib.obj
 0002:0000742c       ??_C@_01CPLAODJH@S?$AA@    67dbb42c     mfcs90d:nolib.obj
 0002:00007430       ??_C@_0BF@GPPHKJFN@Invalid?5DateTimeSpan?$AA@ 67dbb430     mfcs90d:nolib.obj
 0002:00007448       ??_C@_0BB@KEKMKJPM@Invalid?5DateTime?$AA@ 67dbb448     mfcs90d:nolib.obj
 0002:0000745c       _LIBID_ATLLib              67dbb45c     mfcs90d:nolib.obj
 0002:0000746c       _CLSID_Registrar           67dbb46c     mfcs90d:nolib.obj
 0002:0000747c       _IID_IRegistrar            67dbb47c     mfcs90d:nolib.obj
 0002:0000748c       _IID_IAxWinHostWindow      67dbb48c     mfcs90d:nolib.obj
 0002:0000749c       _IID_IAxWinAmbientDispatch 67dbb49c     mfcs90d:nolib.obj
 0002:000074ac       _IID_IInternalConnection   67dbb4ac     mfcs90d:nolib.obj
 0002:000074bc       _IID_IDocHostUIHandlerDispatch 67dbb4bc     mfcs90d:nolib.obj
 0002:000074cc       _IID_IAxWinHostWindowLic   67dbb4cc     mfcs90d:nolib.obj
 0002:000074dc       _IID_IAxWinAmbientDispatchEx 67dbb4dc     mfcs90d:nolib.obj
 0002:0000750c       ?MAX_VALUE@CRegParser@ATL@@1HB 67dbb50c     mfcs90d:nolib.obj
 0002:00007510       ?MAX_TYPE@CRegParser@ATL@@1HB 67dbb510     mfcs90d:nolib.obj
 0002:00007514       ?rgszNeverDelete@CRegParser@ATL@@1QBQBDB 67dbb514     mfcs90d:nolib.obj
 0002:00007544       ?cbNeverDelete@CRegParser@ATL@@1HB 67dbb544     mfcs90d:nolib.obj
 0002:0000756c       ??_7type_info@@6B@         67dbb56c     msvcrtd:ti_inst.obj
 0002:00007570       __pDefaultRawDllMain       67dbb570     msvcrtd:crtdll.obj
 0002:00007574       ??_C@_0DA@FJPPCPEH@f?3?2dd?2vctools?2crt_bld?2self_x86?2c@ 67dbb574     msvcrtd:crtdll.obj
 0002:000075a4       ??_C@_0BO@GNIAFIKK@Unknown?5Runtime?5Check?5Error?6?$AN?$AA@ 67dbb5a4     msvcrtd:_error_.obj
 0002:000075c4       ??_C@_0CM@NGINOKPC@Stack?5memory?5around?5_alloca?5was?5@ 67dbb5c4     msvcrtd:_error_.obj
 0002:000075f0       ??_C@_0DG@HKJMLLLP@A?5local?5variable?5was?5used?5before@ 67dbb5f0     msvcrtd:_error_.obj
 0002:00007628       ??_C@_0BN@FFOINMNJ@Stack?5memory?5was?5corrupted?6?$AN?$AA@ 67dbb628     msvcrtd:_error_.obj
 0002:00007648       ??_C@_0BBN@GPMLNJCF@A?5cast?5to?5a?5smaller?5data?5type?5ha@ 67dbb648     msvcrtd:_error_.obj
 0002:00007768       ??_C@_0NN@NGPKDKPD@The?5value?5of?5ESP?5was?5not?5properl@ 67dbb768     msvcrtd:_error_.obj
 0002:000078e4       ??_C@_0CA@IODNCDPG@Run?9Time?5Check?5Failure?5?$CD?$CFd?5?9?5?$CFs?$AA@ 67dbb8e4     msvcrtd:_error_.obj
 0002:00007904       ??_C@_0BE@GNBOBNCK@Unknown?5Module?5Name?$AA@ 67dbb904     msvcrtd:_error_.obj
 0002:00007918       ??_C@_0BB@PFFGGCJP@Unknown?5Filename?$AA@ 67dbb918     msvcrtd:_error_.obj
 0002:00007930       ??_C@_1EA@NFKNIFJP@?$AAR?$AAu?$AAn?$AA?9?$AAT?$AAi?$AAm?$AAe?$AA?5?$AAC?$AAh?$AAe?$AAc?$AAk?$AA?5?$AAF?$AAa?$AAi?$AAl?$AAu?$AAr?$AAe?$AA?5?$AA?$CD?$AA?$CF?$AAd?$AA?5?$AA?9?$AA?5?$AA?$CF?$AAs?$AA?$AA@ 67dbb930     msvcrtd:_error_.obj
 0002:00007970       ??_C@_1GM@OLMCBDMB@?$AAR?$AAu?$AAn?$AAt?$AAi?$AAm?$AAe?$AA?5?$AAC?$AAh?$AAe?$AAc?$AAk?$AA?5?$AAE?$AAr?$AAr?$AAo?$AAr?$AA?4?$AA?6?$AA?$AN?$AA?5?$AAU?$AAn?$AAa?$AAb?$AAl?$AAe?$AA?5?$AAt?$AAo@ 67dbb970     msvcrtd:_error_.obj
 0002:000079dc       ??_C@_0CG@IAFNJNEE@Stack?5corrupted?5near?5unknown?5var@ 67dbb9dc     msvcrtd:_error_.obj
 0002:00007a08       ??_C@_0EJ@LJKNEOLN@Stack?5area?5around?5_alloca?5memory@ 67dbba08     msvcrtd:_error_.obj
 0002:00007a54       ??_C@_08KJEDNCKC@?$CFs?$CFs?$CFs?$CFs?$AA@ 67dbba54     msvcrtd:_error_.obj
 0002:00007a60       ??_C@_02LLMPMKNF@?$DO?5?$AA@ 67dbba60     msvcrtd:_error_.obj
 0002:00007a64       ??_C@_01EEMJAFIK@?6?$AA@   67dbba64     msvcrtd:_error_.obj
 0002:00007a68       ??_C@_0BC@KIBAILCI@?$CFs?$CFs?$CFp?$CFs?$CFld?$CFs?$CFd?$CFs?$AA@ 67dbba68     msvcrtd:_error_.obj
 0002:00007a80       ??_C@_0EI@CLEPFNGI@Stack?5area?5around?5_alloca?5memory@ 67dbba80     msvcrtd:_error_.obj
 0002:00007ac8       ??_C@_0N@MHFFIMFG@?6Address?3?50x?$AA@ 67dbbac8     msvcrtd:_error_.obj
 0002:00007ad8       ??_C@_07DFDJCKFN@?6Size?3?5?$AA@ 67dbbad8     msvcrtd:_error_.obj
 0002:00007ae0       ??_C@_0CK@DKGBICFE@?6Allocation?5number?5within?5this?5f@ 67dbbae0     msvcrtd:_error_.obj
 0002:00007b0c       ??_C@_08OMAHNMHJ@?6Data?3?5?$DM?$AA@ 67dbbb0c     msvcrtd:_error_.obj
 0002:00007b18       ??_C@_09FOPFMPEJ@wsprintfA?$AA@ 67dbbb18     msvcrtd:_error_.obj
 0002:00007b24       ??_C@_0L@GMPLCCII@user32?4dll?$AA@ 67dbbb24     msvcrtd:_error_.obj
 0002:00007b30       ??_C@_05MKKEDADM@?$CF?42X?5?$AA@ 67dbbb30     msvcrtd:_error_.obj
 0002:00007b38       ??_C@_0DE@OHJBPMBP@A?5variable?5is?5being?5used?5without@ 67dbbb38     msvcrtd:_error_.obj
 0002:00007b6c       ??_C@_0BP@OGBCLIBO@Stack?5around?5_alloca?5corrupted?$AA@ 67dbbb6c     msvcrtd:_userapi_.obj
 0002:00007b8c       ??_C@_0CK@CNLNOEPB@Local?5variable?5used?5before?5initi@ 67dbbb8c     msvcrtd:_userapi_.obj
 0002:00007bb8       ??_C@_0BI@CIGMDCBH@Stack?5memory?5corruption?$AA@ 67dbbbb8     msvcrtd:_userapi_.obj
 0002:00007bd0       ??_C@_0CK@FEGOIOPB@Cast?5to?5smaller?5type?5causing?5los@ 67dbbbd0     msvcrtd:_userapi_.obj
 0002:00007bfc       ??_C@_0BJ@HEGAHDFO@Stack?5pointer?5corruption?$AA@ 67dbbbfc     msvcrtd:_userapi_.obj
 0002:00007c34       ?ProcessDetach@NativeDll@<CrtImplementationDetails>@@0IB 67dbbc34     msvcrtd:tncleanup.obj
 0002:00007c38       ?ProcessAttach@NativeDll@<CrtImplementationDetails>@@0IB 67dbbc38     msvcrtd:tncleanup.obj
 0002:00007c3c       ?ThreadAttach@NativeDll@<CrtImplementationDetails>@@0IB 67dbbc3c     msvcrtd:tncleanup.obj
 0002:00007c40       ?ThreadDetach@NativeDll@<CrtImplementationDetails>@@0IB 67dbbc40     msvcrtd:tncleanup.obj
 0002:00007c44       ?ProcessVerifier@NativeDll@<CrtImplementationDetails>@@0IB 67dbbc44     msvcrtd:tncleanup.obj
 0002:00007c48       ??_C@_0M@EKFFODEC@MSPDB80?4DLL?$AA@ 67dbbc48     msvcrtd:_pdblkup_.obj
 0002:00007c54       ??_C@_01KDCPPGHE@r?$AA@    67dbbc54     msvcrtd:_pdblkup_.obj
 0002:00007c58       ??_C@_0BB@KCIACLNC@PDBOpenValidate5?$AA@ 67dbbc58     msvcrtd:_pdblkup_.obj
 0002:00007c6c       ??_C@_0BF@BMIHBHCA@EnvironmentDirectory?$AA@ 67dbbc6c     msvcrtd:_pdblkup_.obj
 0002:00007c84       ??_C@_0CN@JNNIHDGH@SOFTWARE?2Microsoft?2VisualStudio?2@ 67dbbc84     msvcrtd:_pdblkup_.obj
 0002:00007cb4       ??_C@_0M@HLOHPNFA@RegCloseKey?$AA@ 67dbbcb4     msvcrtd:_pdblkup_.obj
 0002:00007cc0       ??_C@_0BB@HHEIPGME@RegQueryValueExA?$AA@ 67dbbcc0     msvcrtd:_pdblkup_.obj
 0002:00007cd4       ??_C@_0O@DCOGKJGG@RegOpenKeyExA?$AA@ 67dbbcd4     msvcrtd:_pdblkup_.obj
 0002:00007ce4       ??_C@_0N@JJPEKNFO@ADVAPI32?4DLL?$AA@ 67dbbce4     msvcrtd:_pdblkup_.obj
 0002:00007cf4       ??_C@_06JMICFIKN@?$CFs_?$CF0x?$AA@ 67dbbcf4     atlsd:Externs.obj
 0002:00007cfc       ??_C@_0CJ@CAALMDEI@AtlDebugAllocator_FileMappingNam@ 67dbbcfc     atlsd:Externs.obj
 0002:00007d28       ??_C@_0CK@BODLKOMG@AtlTraceModuleManager_ProcessAdd@ 67dbbd28     atlsd:Externs.obj
 0002:00007d58       ??_C@_1GM@OMLOBEGL@?$AAf?$AA?3?$AA?2?$AAd?$AAd?$AA?2?$AAv?$AAc?$AAt?$AAo?$AAo?$AAl?$AAs?$AA?2?$AAv?$AAc?$AA7?$AAl?$AAi?$AAb?$AAs?$AA?2?$AAs?$AAh?$AAi?$AAp?$AA?2?$AAa?$AAt?$AAl?$AAm?$AAf@ 67dbbd58     atlsd:Externs.obj
 0002:00007dc4       ??_C@_1M@HLGKFCJM@?$AAf?$AAa?$AAl?$AAs?$AAe?$AA?$AA@ 67dbbdc4     atlsd:Externs.obj
 0002:00007dd0       ??_C@_0DG@BLHODJEO@f?3?2dd?2vctools?2vc7libs?2ship?2atlmf@ 67dbbdd0     atlsd:Externs.obj
 0002:00007e08       ??_C@_0BF@IAAKIJDJ@AtlThrow?3?5hr?5?$DN?50x?$CFx?6?$AA@ 67dbbe08     atlsd:Externs.obj
 0002:00007e20       ??_C@_0BA@MKMIKKJB@atlTraceGeneral?$AA@ 67dbbe20     atlsd:atltrace.obj
 0002:00007e30       ??_C@_0M@DGPFJEBB@atlTraceCOM?$AA@ 67dbbe30     atlsd:atltrace.obj
 0002:00007e3c       ??_C@_0L@LHELAKBP@atlTraceQI?$AA@ 67dbbe3c     atlsd:atltrace.obj
 0002:00007e48       ??_C@_0BC@MALHFBAO@atlTraceRegistrar?$AA@ 67dbbe48     atlsd:atltrace.obj
 0002:00007e5c       ??_C@_0BB@ILPPDKFL@atlTraceRefcount?$AA@ 67dbbe5c     atlsd:atltrace.obj
 0002:00007e70       ??_C@_0BC@DGHHNKDC@atlTraceWindowing?$AA@ 67dbbe70     atlsd:atltrace.obj
 0002:00007e84       ??_C@_0BB@GHKJKKIE@atlTraceControls?$AA@ 67dbbe84     atlsd:atltrace.obj
 0002:00007e98       ??_C@_0BA@DKOAAGGM@atlTraceHosting?$AA@ 67dbbe98     atlsd:atltrace.obj
 0002:00007ea8       ??_C@_0BB@BEBMGMDO@atlTraceDBClient?$AA@ 67dbbea8     atlsd:atltrace.obj
 0002:00007ebc       ??_C@_0BD@KOADKDIA@atlTraceDBProvider?$AA@ 67dbbebc     atlsd:atltrace.obj
 0002:00007ed0       ??_C@_0P@LNEGBOLO@atlTraceSnapin?$AA@ 67dbbed0     atlsd:atltrace.obj
 0002:00007ee0       ??_C@_0BA@MCBFIDIC@atlTraceNotImpl?$AA@ 67dbbee0     atlsd:atltrace.obj
 0002:00007ef0       ??_C@_0BD@PJPCCAKP@atlTraceAllocation?$AA@ 67dbbef0     atlsd:atltrace.obj
 0002:00007f04       ??_C@_0BC@PGMFNIFA@atlTraceException?$AA@ 67dbbf04     atlsd:atltrace.obj
 0002:00007f18       ??_C@_0N@BNNILHBE@atlTraceTime?$AA@ 67dbbf18     atlsd:atltrace.obj
 0002:00007f28       ??_C@_0O@MEOJAOKK@atlTraceCache?$AA@ 67dbbf28     atlsd:atltrace.obj
 0002:00007f38       ??_C@_0BA@IDBKCKK@atlTraceStencil?$AA@ 67dbbf38     atlsd:atltrace.obj
 0002:00007f48       ??_C@_0P@MBNHGHMI@atlTraceString?$AA@ 67dbbf48     atlsd:atltrace.obj
 0002:00007f58       ??_C@_0M@IOBBMAHG@atlTraceMap?$AA@ 67dbbf58     atlsd:atltrace.obj
 0002:00007f64       ??_C@_0N@FEAAACHD@atlTraceUtil?$AA@ 67dbbf64     atlsd:atltrace.obj
 0002:00007f74       ??_C@_0BB@DNJDADMG@atlTraceSecurity?$AA@ 67dbbf74     atlsd:atltrace.obj
 0002:00007f88       ??_C@_0N@KLPNCFEE@atlTraceSync?$AA@ 67dbbf88     atlsd:atltrace.obj
 0002:00007f98       ??_C@_0O@KHOBHOBJ@atlTraceISAPI?$AA@ 67dbbf98     atlsd:atltrace.obj
 0002:00007fa8       ??_C@_0N@BEIMPMHB@atlTraceUser?$AA@ 67dbbfa8     atlsd:atltrace.obj
 0002:00007fb8       ??_C@_0O@MKGGJJCH@atlTraceUser2?$AA@ 67dbbfb8     atlsd:atltrace.obj
 0002:00007fc8       ??_C@_0O@NDHNKIGG@atlTraceUser3?$AA@ 67dbbfc8     atlsd:atltrace.obj
 0002:00007fd8       ??_C@_0O@JMDMDOKB@atlTraceUser4?$AA@ 67dbbfd8     atlsd:atltrace.obj
 0002:00007fe8       ??_C@_1HO@MNFHLCLF@?$AAf?$AA?3?$AA?2?$AAd?$AAd?$AA?2?$AAv?$AAc?$AAt?$AAo?$AAo?$AAl?$AAs?$AA?2?$AAv?$AAc?$AA7?$AAl?$AAi?$AAb?$AAs?$AA?2?$AAs?$AAh?$AAi?$AAp?$AA?2?$AAa?$AAt?$AAl?$AAm?$AAf@ 67dbbfe8     atlsd:AtlDebugAPI.obj
 0002:00008068       ??_C@_1BK@LIHAAANN@?$AAp?$AAM?$AAo?$AAd?$AAu?$AAl?$AAe?$AA?5?$AA?$CB?$AA?$DN?$AA?5?$AA0?$AA?$AA@ 67dbc068     atlsd:AtlDebugAPI.obj
 0002:00008084       ??_C@_1BM@DFEBCPM@?$AAp?$AAP?$AAr?$AAo?$AAc?$AAe?$AAs?$AAs?$AA?5?$AA?$CB?$AA?$DN?$AA?5?$AA0?$AA?$AA@ 67dbc084     atlsd:AtlDebugAPI.obj
 0002:000080a0       ??_C@_1BM@GBBOFEAE@?$AA_?$AA_?$AAa?$AAt?$AAl?$AA_?$AAc?$AAo?$AAn?$AAd?$AAV?$AAa?$AAl?$AA?$AA@ 67dbc0a0     atlsd:AtlDebugAPI.obj
 0002:000080bc       ??_C@_02DKCKIIND@?$CFs?$AA@ 67dbc0bc     atlsd:AtlDebugAPI.obj
 0002:000080c0       ??_C@_04FFDMEMDO@?$CFS?3?5?$AA@ 67dbc0c0     atlsd:AtlDebugAPI.obj
 0002:000080c8       ??_C@_09IIMHCEDG@?$CFs?$CI?$CFd?$CJ?5?3?5?$AA@ 67dbc0c8     atlsd:AtlDebugAPI.obj
 0002:000080d4       ??_C@_02KPKOKMHB@?$CFS?$AA@ 67dbc0d4     atlsd:AtlDebugAPI.obj
 0002:000080d8       ??_C@_19JCANECJL@?$AA?$CF?$AAs?$AA?3?$AA?5?$AA?$AA@ 67dbc0d8     atlsd:AtlDebugAPI.obj
 0002:000080e4       ??_C@_1BE@PGKGHBDF@?$AA?$CF?$AAS?$AA?$CI?$AA?$CF?$AAd?$AA?$CJ?$AA?5?$AA?3?$AA?5?$AA?$AA@ 67dbc0e4     atlsd:AtlDebugAPI.obj
 0002:000080f8       ??_C@_1DA@NMHCLMEJ@?$AAp?$AAA?$AAl?$AAl?$AAo?$AAc?$AAa?$AAt?$AAo?$AAr?$AA?9?$AA?$DO?$AAm?$AA_?$AAb?$AAS?$AAn?$AAa?$AAp?$AAs?$AAh?$AAo?$AAt?$AA?$AA@ 67dbc0f8     atlsd:AtlDebugAPI.obj
 0002:00008128       ??_C@_1CE@NDBHOLMF@?$AAp?$AAP?$AAr?$AAo?$AAc?$AAe?$AAs?$AAs?$AAI?$AAn?$AAf?$AAo?$AA?5?$AA?$CB?$AA?$DN?$AA?5?$AA0?$AA?$AA@ 67dbc128     atlsd:AtlDebugAPI.obj
 0002:0000814c       ??_C@_1CC@ONKAHKMP@?$AAp?$AAM?$AAo?$AAd?$AAu?$AAl?$AAe?$AAI?$AAn?$AAf?$AAo?$AA?5?$AA?$CB?$AA?$DN?$AA?5?$AA0?$AA?$AA@ 67dbc14c     atlsd:AtlDebugAPI.obj
 0002:00008170       ??_C@_1CG@BANGGBIE@?$AAp?$AAC?$AAa?$AAt?$AAe?$AAg?$AAo?$AAr?$AAy?$AAI?$AAn?$AAf?$AAo?$AA?5?$AA?$CB?$AA?$DN?$AA?5?$AA0?$AA?$AA@ 67dbc170     atlsd:AtlDebugAPI.obj
 0002:00008198       ??_C@_1BC@JOPFIJLO@?$AAp?$AAP?$AAr?$AAo?$AAc?$AAe?$AAs?$AAs?$AA?$AA@ 67dbc198     atlsd:AtlDebugAPI.obj
 0002:000081ac       ??_C@_1DM@CECLCIOA@?$AAp?$AAp?$AAC?$AAa?$AAt?$AAe?$AAg?$AAo?$AAr?$AAy?$AA?5?$AA?$CG?$AA?$CG?$AA?5?$AAp?$AAf?$AAn?$AAC?$AAr?$AAt?$AAD?$AAb?$AAg?$AAR?$AAe?$AAp?$AAo?$AAr?$AAt?$AA?$AA@ 67dbc1ac     atlsd:AtlDebugAPI.obj
 0002:000081e8       ??_C@_1HA@EFGOBFOA@?$AAf?$AA?3?$AA?2?$AAd?$AAd?$AA?2?$AAv?$AAc?$AAt?$AAo?$AAo?$AAl?$AAs?$AA?2?$AAv?$AAc?$AA7?$AAl?$AAi?$AAb?$AAs?$AA?2?$AAs?$AAh?$AAi?$AAp?$AA?2?$AAa?$AAt?$AAl?$AAm?$AAf@ 67dbc1e8     atlsd:AtlDebugAPI.obj
 0002:00008258       ??_C@_1EA@JHMKKLFC@?$AAn?$AAI?$AAn?$AAd?$AAe?$AAx?$AA?5?$AA?$DO?$AA?$DN?$AA?5?$AA0?$AA?5?$AA?$CG?$AA?$CG?$AA?5?$AAn?$AAI?$AAn?$AAd?$AAe?$AAx?$AA?5?$AA?$DM?$AA?5?$AAm?$AA_?$AAn?$AAS?$AAi?$AAz?$AAe?$AA?$AA@ 67dbc258     atlsd:AtlDebugAPI.obj
 0002:00008298       ??_C@_1GI@CLJCGCPP@?$AAf?$AA?3?$AA?2?$AAd?$AAd?$AA?2?$AAv?$AAc?$AAt?$AAo?$AAo?$AAl?$AAs?$AA?2?$AAv?$AAc?$AA7?$AAl?$AAi?$AAb?$AAs?$AA?2?$AAs?$AAh?$AAi?$AAp?$AA?2?$AAa?$AAt?$AAl?$AAm?$AAf@ 67dbc298     atlsd:AtlDebugAPI.obj
 0002:00008300       ??_C@_1BC@PMINONJG@?$AAb?$AAS?$AAu?$AAc?$AAc?$AAe?$AAs?$AAs?$AA?$AA@ 67dbc300     atlsd:Allocate.obj
 0002:00008318       ??_C@_1HI@MDMANKNC@?$AAf?$AA?3?$AA?2?$AAd?$AAd?$AA?2?$AAv?$AAc?$AAt?$AAo?$AAo?$AAl?$AAs?$AA?2?$AAv?$AAc?$AA7?$AAl?$AAi?$AAb?$AAs?$AA?2?$AAs?$AAh?$AAi?$AAp?$AA?2?$AAa?$AAt?$AAl?$AAm?$AAf@ 67dbc318     atlsd:Allocate.obj
 0002:00008390       ??_C@_1DG@LHMNHOH@?$AA?$CB?$AAm?$AA_?$AAh?$AAM?$AAa?$AAp?$AA?5?$AA?$CG?$AA?$CG?$AA?5?$AA?$CB?$AAm?$AA_?$AAp?$AAB?$AAu?$AAf?$AAf?$AAe?$AAr?$AAS?$AAt?$AAa?$AAr?$AAt?$AA?$AA@ 67dbc390     atlsd:Allocate.obj
 0002:000083c8       ??_C@_1CC@JCNIBNON@?$AAi?$AAM?$AAo?$AAd?$AAu?$AAl?$AAe?$AA?5?$AA?$DM?$AA?5?$AAm?$AAo?$AAd?$AAc?$AAn?$AAt?$AA?$AA@ 67dbc3c8     atlsd:Allocate.obj
 0002:000083f0       ??_C@_1HO@KONLCGL@?$AA?$CI?$AAi?$AAC?$AAa?$AAt?$AAe?$AAg?$AAo?$AAr?$AAy?$AA?5?$AA?$DM?$AA?5?$AAm?$AA_?$AAp?$AAP?$AAr?$AAo?$AAc?$AAe?$AAs?$AAs?$AA?9?$AA?$DO?$AAC?$AAa?$AAt?$AAe?$AAg?$AAo?$AAr@ 67dbc3f0     atlsd:Allocate.obj
 0002:00008470       ??_C@_1BG@EIHNOMMF@?$AAm?$AA_?$AAp?$AAP?$AAr?$AAo?$AAc?$AAe?$AAs?$AAs?$AA?$AA@ 67dbc470     atlsd:Allocate.obj
 0002:00008488       ??_C@_1IO@GJLKCBCE@?$AAf?$AA?3?$AA?2?$AAd?$AAd?$AA?2?$AAv?$AAc?$AAt?$AAo?$AAo?$AAl?$AAs?$AA?2?$AAv?$AAc?$AA7?$AAl?$AAi?$AAb?$AAs?$AA?2?$AAs?$AAh?$AAi?$AAp?$AA?2?$AAa?$AAt?$AAl?$AAm?$AAf@ 67dbc488     atlsd:Allocate.obj
 0002:00008518       ??_C@_1BK@GFEAMNLJ@?$AAn?$AAC?$AAo?$AAo?$AAk?$AAi?$AAe?$AA?5?$AA?$CB?$AA?$DN?$AA?5?$AA0?$AA?$AA@ 67dbc518     atlsd:Allocate.obj
 0002:00008534       ??_C@_1BO@OAGIAJOK@?$AAp?$AAC?$AAa?$AAt?$AAe?$AAg?$AAo?$AAr?$AAy?$AA?5?$AA?$CB?$AA?$DN?$AA?5?$AA0?$AA?$AA@ 67dbc534     atlsd:Allocate.obj
 0002:00008554       ??_C@_11LOCGONAA@?$AA?$AA@ 67dbc554     atlsd:AtlTraceModuleManager.obj
 0002:00008558       __load_config_used         67dbc558     msvcrtd:loadcfg.obj
 0002:00008610       ??_R4CAbortDlg@@6B@        67dbc610     AbortDlg.obj
 0002:00008624       ??_R3CAbortDlg@@8          67dbc624     AbortDlg.obj
 0002:00008634       ??_R2CAbortDlg@@8          67dbc634     AbortDlg.obj
 0002:0000864c       ??_R1A@?0A@EA@CAbortDlg@@8 67dbc64c     AbortDlg.obj
 0002:00008668       ??_R1A@?0A@EA@CDialog@@8   67dbc668     AbortDlg.obj
 0002:00008684       ??_R3CDialog@@8            67dbc684     AbortDlg.obj
 0002:00008694       ??_R2CDialog@@8            67dbc694     AbortDlg.obj
 0002:000086a8       ??_R1A@?0A@EA@CWnd@@8      67dbc6a8     AbortDlg.obj
 0002:000086c4       ??_R3CWnd@@8               67dbc6c4     AbortDlg.obj
 0002:000086d4       ??_R2CWnd@@8               67dbc6d4     AbortDlg.obj
 0002:000086e4       ??_R1A@?0A@EA@CCmdTarget@@8 67dbc6e4     AbortDlg.obj
 0002:00008700       ??_R3CCmdTarget@@8         67dbc700     AbortDlg.obj
 0002:00008710       ??_R2CCmdTarget@@8         67dbc710     AbortDlg.obj
 0002:0000871c       ??_R1A@?0A@EA@CObject@@8   67dbc71c     AbortDlg.obj
 0002:00008738       ??_R3CObject@@8            67dbc738     AbortDlg.obj
 0002:00008748       ??_R2CObject@@8            67dbc748     AbortDlg.obj
 0002:00008750       ??_R4CAcqConfigDlg@@6BCDialog@@@ 67dbc750     AcqConfigDlg.obj
 0002:00008764       ??_R3CAcqConfigDlg@@8      67dbc764     AcqConfigDlg.obj
 0002:00008774       ??_R2CAcqConfigDlg@@8      67dbc774     AcqConfigDlg.obj
 0002:00008790       ??_R1A@?0A@EA@CAcqConfigDlg@@8 67dbc790     AcqConfigDlg.obj
 0002:000087ac       ??_R1HE@?0A@EA@SapManager@@8 67dbc7ac     AcqConfigDlg.obj
 0002:000087c8       ??_R3SapManager@@8         67dbc7c8     AcqConfigDlg.obj
 0002:000087d8       ??_R2SapManager@@8         67dbc7d8     AcqConfigDlg.obj
 0002:000087e0       ??_R1A@?0A@EA@SapManager@@8 67dbc7e0     AcqConfigDlg.obj
 0002:000087fc       ??_R4CAcqConfigDlg@@6BSapManager@@@ 67dbc7fc     AcqConfigDlg.obj
 0002:00008810       ??_R4CAcqDlg@@6BCDialog@@@ 67dbc810     AcqDlg.obj
 0002:00008824       ??_R3CAcqDlg@@8            67dbc824     AcqDlg.obj
 0002:00008834       ??_R2CAcqDlg@@8            67dbc834     AcqDlg.obj
 0002:00008850       ??_R1A@?0A@EA@CAcqDlg@@8   67dbc850     AcqDlg.obj
 0002:0000886c       ??_R4CAcqDlg@@6BSapManager@@@ 67dbc86c     AcqDlg.obj
 0002:00008880       ??_R4CAScanDlg@@6BCDialog@@@ 67dbc880     AScanDlg.obj
 0002:00008894       ??_R3CAScanDlg@@8          67dbc894     AScanDlg.obj
 0002:000088a4       ??_R2CAScanDlg@@8          67dbc8a4     AScanDlg.obj
 0002:000088c0       ??_R1A@?0A@EA@CAScanDlg@@8 67dbc8c0     AScanDlg.obj
 0002:000088dc       ??_R4CAScanDlg@@6BSapManager@@@ 67dbc8dc     AScanDlg.obj
 0002:000088f0       ??_R4CAviFileDlg@@6B@      67dbc8f0     AviFileDlg.obj
 0002:00008904       ??_R3CAviFileDlg@@8        67dbc904     AviFileDlg.obj
 0002:00008914       ??_R2CAviFileDlg@@8        67dbc914     AviFileDlg.obj
 0002:0000892c       ??_R1A@?0A@EA@CAviFileDlg@@8 67dbc92c     AviFileDlg.obj
 0002:00008948       ??_R4CBayerOptionsDlg@@6BCDialog@@@ 67dbc948     BayerDlg.obj
 0002:0000895c       ??_R3CBayerOptionsDlg@@8   67dbc95c     BayerDlg.obj
 0002:0000896c       ??_R2CBayerOptionsDlg@@8   67dbc96c     BayerDlg.obj
 0002:00008988       ??_R1A@?0A@EA@CBayerOptionsDlg@@8 67dbc988     BayerDlg.obj
 0002:000089a4       ??_R4CBayerOptionsDlg@@6BSapManager@@@ 67dbc9a4     BayerDlg.obj
 0002:000089b8       ??_R4CBufDlg@@6B@          67dbc9b8     BufDlg.obj
 0002:000089cc       ??_R3CBufDlg@@8            67dbc9cc     BufDlg.obj
 0002:000089dc       ??_R2CBufDlg@@8            67dbc9dc     BufDlg.obj
 0002:000089f4       ??_R1A@?0A@EA@CBufDlg@@8   67dbc9f4     BufDlg.obj
 0002:00008a10       ??_R4CCabDlg@@6BCDialog@@@ 67dbca10     CabDlg.obj
 0002:00008a24       ??_R3CCabDlg@@8            67dbca24     CabDlg.obj
 0002:00008a34       ??_R2CCabDlg@@8            67dbca34     CabDlg.obj
 0002:00008a50       ??_R1A@?0A@EA@CCabDlg@@8   67dbca50     CabDlg.obj
 0002:00008a6c       ??_R4CCabDlg@@6BSapManager@@@ 67dbca6c     CabDlg.obj
 0002:00008a80       ??_R4SapCab@@6B@           67dbca80     CabDlg.obj
 0002:00008a94       ??_R3SapCab@@8             67dbca94     CabDlg.obj
 0002:00008aa4       ??_R2SapCab@@8             67dbcaa4     CabDlg.obj
 0002:00008ab4       ??_R1A@?0A@EA@SapCab@@8    67dbcab4     CabDlg.obj
 0002:00008ad0       ??_R1A@?0A@EA@SapXferNode@@8 67dbcad0     CabDlg.obj
 0002:00008aec       ??_R3SapXferNode@@8        67dbcaec     CabDlg.obj
 0002:00008afc       ??_R2SapXferNode@@8        67dbcafc     CabDlg.obj
 0002:00008b08       ??_R4CCamVicDlg@@6BCDialog@@@ 67dbcb08     CamVicDlg.obj
 0002:00008b1c       ??_R3CCamVicDlg@@8         67dbcb1c     CamVicDlg.obj
 0002:00008b2c       ??_R2CCamVicDlg@@8         67dbcb2c     CamVicDlg.obj
 0002:00008b48       ??_R1A@?0A@EA@CCamVicDlg@@8 67dbcb48     CamVicDlg.obj
 0002:00008b64       ??_R4CCamVicDlg@@6BSapManager@@@ 67dbcb64     CamVicDlg.obj
 0002:00008b78       ??_R4CCompDlg@@6BCDialog@@@ 67dbcb78     CompDlg.obj
 0002:00008b8c       ??_R3CCompDlg@@8           67dbcb8c     CompDlg.obj
 0002:00008b9c       ??_R2CCompDlg@@8           67dbcb9c     CompDlg.obj
 0002:00008bb8       ??_R1A@?0A@EA@CCompDlg@@8  67dbcbb8     CompDlg.obj
 0002:00008bd4       ??_R4CCompDlg@@6BSapManager@@@ 67dbcbd4     CompDlg.obj
 0002:00008be8       ??_R4CFlatFieldDlg@@6BCDialog@@@ 67dbcbe8     FlatFieldDlg.obj
 0002:00008bfc       ??_R3CFlatFieldDlg@@8      67dbcbfc     FlatFieldDlg.obj
 0002:00008c0c       ??_R2CFlatFieldDlg@@8      67dbcc0c     FlatFieldDlg.obj
 0002:00008c28       ??_R1A@?0A@EA@CFlatFieldDlg@@8 67dbcc28     FlatFieldDlg.obj
 0002:00008c44       ??_R4CFlatFieldDlg@@6BSapManager@@@ 67dbcc44     FlatFieldDlg.obj
 0002:00008c58       ??_R4SapBuffer@@6B@        67dbcc58     FlatFieldDlg.obj
 0002:00008c6c       ??_R3SapBuffer@@8          67dbcc6c     FlatFieldDlg.obj
 0002:00008c7c       ??_R2SapBuffer@@8          67dbcc7c     FlatFieldDlg.obj
 0002:00008c8c       ??_R1A@?0A@EA@SapBuffer@@8 67dbcc8c     FlatFieldDlg.obj
 0002:00008ca8       ??_R4CGioBidirectionalDlg@@6B@ 67dbcca8     GioBidirectionalDlg.obj
 0002:00008cbc       ??_R3CGioBidirectionalDlg@@8 67dbccbc     GioBidirectionalDlg.obj
 0002:00008ccc       ??_R2CGioBidirectionalDlg@@8 67dbcccc     GioBidirectionalDlg.obj
 0002:00008ce4       ??_R1A@?0A@EA@CGioBidirectionalDlg@@8 67dbcce4     GioBidirectionalDlg.obj
 0002:00008d00       ??_R4CGioInputDlg@@6B@     67dbcd00     GioInputDlg.obj
 0002:00008d14       ??_R3CGioInputDlg@@8       67dbcd14     GioInputDlg.obj
 0002:00008d24       ??_R2CGioInputDlg@@8       67dbcd24     GioInputDlg.obj
 0002:00008d3c       ??_R1A@?0A@EA@CGioInputDlg@@8 67dbcd3c     GioInputDlg.obj
 0002:00008d58       ??_R4CGioOutputDlg@@6B@    67dbcd58     GioOutputDlg.obj
 0002:00008d6c       ??_R3CGioOutputDlg@@8      67dbcd6c     GioOutputDlg.obj
 0002:00008d7c       ??_R2CGioOutputDlg@@8      67dbcd7c     GioOutputDlg.obj
 0002:00008d94       ??_R1A@?0A@EA@CGioOutputDlg@@8 67dbcd94     GioOutputDlg.obj
 0002:00008db0       ??_R4CImageWnd@@6B@        67dbcdb0     ImageWnd.obj
 0002:00008dc4       ??_R3CImageWnd@@8          67dbcdc4     ImageWnd.obj
 0002:00008dd4       ??_R2CImageWnd@@8          67dbcdd4     ImageWnd.obj
 0002:00008ddc       ??_R1A@?0A@EA@CImageWnd@@8 67dbcddc     ImageWnd.obj
 0002:00008df8       ??_R4CSapRectTracker@@6B@  67dbcdf8     ImageWnd.obj
 0002:00008e0c       ??_R3CSapRectTracker@@8    67dbce0c     ImageWnd.obj
 0002:00008e1c       ??_R2CSapRectTracker@@8    67dbce1c     ImageWnd.obj
 0002:00008e28       ??_R1A@?0A@EA@CSapRectTracker@@8 67dbce28     ImageWnd.obj
 0002:00008e44       ??_R1A@?0A@EA@CRectTracker@@8 67dbce44     ImageWnd.obj
 0002:00008e60       ??_R3CRectTracker@@8       67dbce60     ImageWnd.obj
 0002:00008e70       ??_R2CRectTracker@@8       67dbce70     ImageWnd.obj
 0002:00008e78       ??_R4CJpegFileDlg@@6B@     67dbce78     JpegFileDlg.obj
 0002:00008e8c       ??_R3CJpegFileDlg@@8       67dbce8c     JpegFileDlg.obj
 0002:00008e9c       ??_R2CJpegFileDlg@@8       67dbce9c     JpegFileDlg.obj
 0002:00008eb4       ??_R1A@?0A@EA@CJpegFileDlg@@8 67dbceb4     JpegFileDlg.obj
 0002:00008ed0       ??_R4CLoadSaveDlg@@6B@     67dbced0     LoadSaveDlg.obj
 0002:00008ee4       ??_R3CLoadSaveDlg@@8       67dbcee4     LoadSaveDlg.obj
 0002:00008ef4       ??_R2CLoadSaveDlg@@8       67dbcef4     LoadSaveDlg.obj
 0002:00008f14       ??_R1A@?0A@EA@CLoadSaveDlg@@8 67dbcf14     LoadSaveDlg.obj
 0002:00008f30       ??_R1A@?0A@EA@CFileDialog@@8 67dbcf30     LoadSaveDlg.obj
 0002:00008f4c       ??_R3CFileDialog@@8        67dbcf4c     LoadSaveDlg.obj
 0002:00008f5c       ??_R2CFileDialog@@8        67dbcf5c     LoadSaveDlg.obj
 0002:00008f78       ??_R1A@?0A@EA@CCommonDialog@@8 67dbcf78     LoadSaveDlg.obj
 0002:00008f94       ??_R3CCommonDialog@@8      67dbcf94     LoadSaveDlg.obj
 0002:00008fa4       ??_R2CCommonDialog@@8      67dbcfa4     LoadSaveDlg.obj
 0002:00008fbc       ??_R4CLScanDlg@@6BCDialog@@@ 67dbcfbc     LScanDlg.obj
 0002:00008fd0       ??_R3CLScanDlg@@8          67dbcfd0     LScanDlg.obj
 0002:00008fe0       ??_R2CLScanDlg@@8          67dbcfe0     LScanDlg.obj
 0002:00008ffc       ??_R1A@?0A@EA@CLScanDlg@@8 67dbcffc     LScanDlg.obj
 0002:00009018       ??_R4CLScanDlg@@6BSapManager@@@ 67dbd018     LScanDlg.obj
 0002:0000902c       ??_R4CPixProAbsSubDlg@@6B@ 67dbd02c     PixProAbsSubDlg.obj
 0002:00009040       ??_R3CPixProAbsSubDlg@@8   67dbd040     PixProAbsSubDlg.obj
 0002:00009050       ??_R2CPixProAbsSubDlg@@8   67dbd050     PixProAbsSubDlg.obj
 0002:00009068       ??_R1A@?0A@EA@CPixProAbsSubDlg@@8 67dbd068     PixProAbsSubDlg.obj
 0002:00009084       ??_R4CPixProDlg@@6B@       67dbd084     PixProDlg.obj
 0002:00009098       ??_R3CPixProDlg@@8         67dbd098     PixProDlg.obj
 0002:000090a8       ??_R2CPixProDlg@@8         67dbd0a8     PixProDlg.obj
 0002:000090c0       ??_R1A@?0A@EA@CPixProDlg@@8 67dbd0c0     PixProDlg.obj
 0002:000090dc       ??_R4CPixProIntScaleDlg@@6B@ 67dbd0dc     PixProIntScaleDlg.obj
 0002:000090f0       ??_R3CPixProIntScaleDlg@@8 67dbd0f0     PixProIntScaleDlg.obj
 0002:00009100       ??_R2CPixProIntScaleDlg@@8 67dbd100     PixProIntScaleDlg.obj
 0002:00009118       ??_R1A@?0A@EA@CPixProIntScaleDlg@@8 67dbd118     PixProIntScaleDlg.obj
 0002:00009134       ??_R4CPixProRefImageDlg@@6B@ 67dbd134     PixProRefImageDlg.obj
 0002:00009148       ??_R3CPixProRefImageDlg@@8 67dbd148     PixProRefImageDlg.obj
 0002:00009158       ??_R2CPixProRefImageDlg@@8 67dbd158     PixProRefImageDlg.obj
 0002:00009170       ??_R1A@?0A@EA@CPixProRefImageDlg@@8 67dbd170     PixProRefImageDlg.obj
 0002:0000918c       ??_R4CPixProUflowSubDlg@@6B@ 67dbd18c     PixProUflowSubDlg.obj
 0002:000091a0       ??_R3CPixProUflowSubDlg@@8 67dbd1a0     PixProUflowSubDlg.obj
 0002:000091b0       ??_R2CPixProUflowSubDlg@@8 67dbd1b0     PixProUflowSubDlg.obj
 0002:000091c8       ??_R1A@?0A@EA@CPixProUflowSubDlg@@8 67dbd1c8     PixProUflowSubDlg.obj
 0002:000091e4       ??_R4CPixProWAvgDlg@@6B@   67dbd1e4     PixProWAvgDlg.obj
 0002:000091f8       ??_R3CPixProWAvgDlg@@8     67dbd1f8     PixProWAvgDlg.obj
 0002:00009208       ??_R2CPixProWAvgDlg@@8     67dbd208     PixProWAvgDlg.obj
 0002:00009220       ??_R1A@?0A@EA@CPixProWAvgDlg@@8 67dbd220     PixProWAvgDlg.obj
 0002:0000923c       ??_R4CRawFileDlg@@6B@      67dbd23c     RawFileDlg.obj
 0002:00009250       ??_R3CRawFileDlg@@8        67dbd250     RawFileDlg.obj
 0002:00009260       ??_R2CRawFileDlg@@8        67dbd260     RawFileDlg.obj
 0002:00009278       ??_R1A@?0A@EA@CRawFileDlg@@8 67dbd278     RawFileDlg.obj
 0002:00009294       ??_R4CRectTracker@@6B@     67dbd294     SapClassGui.obj
 0002:000092a8       ??_R4Thank_you@Define_the_symbol__ATL_MIXED@@6B@ 67dbd2a8     SapClassGui.obj
 0002:000092bc       ??_R3Thank_you@Define_the_symbol__ATL_MIXED@@8 67dbd2bc     SapClassGui.obj
 0002:000092cc       ??_R2Thank_you@Define_the_symbol__ATL_MIXED@@8 67dbd2cc     SapClassGui.obj
 0002:000092d4       ??_R1A@?0A@EA@Thank_you@Define_the_symbol__ATL_MIXED@@8 67dbd2d4     SapClassGui.obj
 0002:000092f0       ??_R4CTiffFileDlg@@6B@     67dbd2f0     TiffFileDlg.obj
 0002:00009304       ??_R3CTiffFileDlg@@8       67dbd304     TiffFileDlg.obj
 0002:00009314       ??_R2CTiffFileDlg@@8       67dbd314     TiffFileDlg.obj
 0002:0000932c       ??_R1A@?0A@EA@CTiffFileDlg@@8 67dbd32c     TiffFileDlg.obj
 0002:00009348       ??_R4CViewDlg@@6B@         67dbd348     ViewDlg.obj
 0002:0000935c       ??_R3CViewDlg@@8           67dbd35c     ViewDlg.obj
 0002:0000936c       ??_R2CViewDlg@@8           67dbd36c     ViewDlg.obj
 0002:00009384       ??_R1A@?0A@EA@CViewDlg@@8  67dbd384     ViewDlg.obj
 0002:000093a0       ??_R4type_info@@6B@        67dbd3a0     msvcrtd:ti_inst.obj
 0002:000093b4       ??_R3type_info@@8          67dbd3b4     msvcrtd:ti_inst.obj
 0002:000093c4       ??_R2type_info@@8          67dbd3c4     msvcrtd:ti_inst.obj
 0002:000093cc       ??_R1A@?0A@EA@type_info@@8 67dbd3cc     msvcrtd:ti_inst.obj
 0002:000093f0       ___safe_se_handler_table   67dbd3f0     <linker-defined>
 0002:0000959c       ___rtc_iaa                 67dbd59c     msvcrtd:_initsect_.obj
 0002:00009614       ___rtc_izz                 67dbd614     msvcrtd:_initsect_.obj
 0002:00009618       ___rtc_taa                 67dbd618     msvcrtd:_initsect_.obj
 0002:00009690       ___rtc_tzz                 67dbd690     msvcrtd:_initsect_.obj
 0002:0000b1ec       __TI1?AVCAtlException@ATL@@ 67dbf1ec     atlsd:Externs.obj
 0002:0000b1fc       __CTA1?AVCAtlException@ATL@@ 67dbf1fc     atlsd:Externs.obj
 0002:0000b204       __CT??_R0?AVCAtlException@ATL@@@84 67dbf204     atlsd:Externs.obj
 0002:0000b25c       ___pobjMapEntryFirst       67dbf25c     mfcs90d:nolib.obj
 0002:0000b260       ___pobjMapEntryLast        67dbf260     mfcs90d:nolib.obj
 0002:0000b264       __IMPORT_DESCRIPTOR_CORAPI 67dbf264     Corapi:CORAPI.dll
 0002:0000b278       __IMPORT_DESCRIPTOR_SapClassBasic74 67dbf278     SapClassBasic:SapClassBasic74.dll
 0002:0000b28c       __IMPORT_DESCRIPTOR_mfc90d 67dbf28c     mfc90d:mfc90d.dll
 0002:0000b2a0       __IMPORT_DESCRIPTOR_MSVCR90D 67dbf2a0     msvcrtd:MSVCR90D.dll
 0002:0000b2b4       __IMPORT_DESCRIPTOR_KERNEL32 67dbf2b4     kernel32:KERNEL32.dll
 0002:0000b2c8       __IMPORT_DESCRIPTOR_USER32 67dbf2c8     user32:USER32.dll
 0002:0000b2dc       __IMPORT_DESCRIPTOR_GDI32  67dbf2dc     gdi32:GDI32.dll
 0002:0000b2f0       __IMPORT_DESCRIPTOR_COMDLG32 67dbf2f0     comdlg32:COMDLG32.dll
 0002:0000b304       __IMPORT_DESCRIPTOR_OLEAUT32 67dbf304     oleaut32:OLEAUT32.dll
 0002:0000b318       __IMPORT_DESCRIPTOR_ADVAPI32 67dbf318     advapi32:ADVAPI32.dll
 0002:0000b32c       __NULL_IMPORT_DESCRIPTOR   67dbf32c     Corapi:CORAPI.dll
 0003:00000010       ??_R0?AVCAbortDlg@@@8      67dca010     AbortDlg.obj
 0003:00000028       ??_R0?AVCDialog@@@8        67dca028     AbortDlg.obj
 0003:00000040       ??_R0?AVCWnd@@@8           67dca040     AbortDlg.obj
 0003:00000054       ??_R0?AVCCmdTarget@@@8     67dca054     AbortDlg.obj
 0003:00000070       ??_R0?AVCObject@@@8        67dca070     AbortDlg.obj
 0003:000000b0       ??_R0?AVCAcqConfigDlg@@@8  67dca0b0     AcqConfigDlg.obj
 0003:000000cc       ??_R0?AVSapManager@@@8     67dca0cc     AcqConfigDlg.obj
 0003:000000f8       ??_R0?AVCAcqDlg@@@8        67dca0f8     AcqDlg.obj
 0003:00000120       ??_R0?AVCAScanDlg@@@8      67dca120     AScanDlg.obj
 0003:0000014c       ??_R0?AVCAviFileDlg@@@8    67dca14c     AviFileDlg.obj
 0003:00000178       ?m_AlignValues@CBayerOptionsDlg@@0PAHA 67dca178     BayerDlg.obj
 0003:00000188       ?m_MethodValues@CBayerOptionsDlg@@0PAHA 67dca188     BayerDlg.obj
 0003:000001a0       ??_R0?AVCBayerOptionsDlg@@@8 67dca1a0     BayerDlg.obj
 0003:000001d0       ?m_FormatInfo@CBufDlg@@1PAVSapFormatInfo@@A 67dca1d0     BufDlg.obj
 0003:00000288       ??_R0?AVCBufDlg@@@8        67dca288     BufDlg.obj
 0003:000002b0       ?m_transferModeInfo@CCabDlg@@1PAUTRANSFERMODEINFO@@A 67dca2b0     CabDlg.obj
 0003:000002d8       ?m_chControlId@CCabDlg@@1PAHA 67dca2d8     CabDlg.obj
 0003:00000318       ??_R0?AVCCabDlg@@@8        67dca318     CabDlg.obj
 0003:00000330       ??_R0?AVSapCab@@@8         67dca330     CabDlg.obj
 0003:00000348       ??_R0?AVSapXferNode@@@8    67dca348     CabDlg.obj
 0003:0000038c       ??_R0?AVCCamVicDlg@@@8     67dca38c     CamVicDlg.obj
 0003:000003b8       ??_R0?AVCCompDlg@@@8       67dca3b8     CompDlg.obj
 0003:000003e4       ??_R0?AVCFlatFieldDlg@@@8  67dca3e4     FlatFieldDlg.obj
 0003:00000400       ??_R0?AVSapBuffer@@@8      67dca400     FlatFieldDlg.obj
 0003:00000434       ??_R0?AVCGioBidirectionalDlg@@@8 67dca434     GioBidirectionalDlg.obj
 0003:0000046c       ??_R0?AVCGioInputDlg@@@8   67dca46c     GioInputDlg.obj
 0003:0000049c       ??_R0?AVCGioOutputDlg@@@8  67dca49c     GioOutputDlg.obj
 0003:000004b8       ??_R0?AVCImageWnd@@@8      67dca4b8     ImageWnd.obj
 0003:000004d0       ??_R0?AVCSapRectTracker@@@8 67dca4d0     ImageWnd.obj
 0003:000004f0       ??_R0?AVCRectTracker@@@8   67dca4f0     ImageWnd.obj
 0003:0000050c       ?_dwStockPropMask@CJpegFileDlg@@0KA 67dca50c     JpegFileDlg.obj
 0003:00000510       ?_dispatchEntryCount@CJpegFileDlg@@0IA 67dca510     JpegFileDlg.obj
 0003:00000528       ??_R0?AVCJpegFileDlg@@@8   67dca528     JpegFileDlg.obj
 0003:0000055c       ?m_StandardTypes@CLoadSaveDlg@@1PAHA 67dca55c     LoadSaveDlg.obj
 0003:00000574       ?m_StandardExtensions@CLoadSaveDlg@@1PAY04DA 67dca574     LoadSaveDlg.obj
 0003:00000594       ?m_SequenceTypes@CLoadSaveDlg@@1PAHA 67dca594     LoadSaveDlg.obj
 0003:00000598       ?m_ConversionTable@CLoadSaveDlg@@1PAUCONVERSION_TABLE@@A 67dca598     LoadSaveDlg.obj
 0003:00000988       ??_R0?AVCLoadSaveDlg@@@8   67dca988     LoadSaveDlg.obj
 0003:000009a4       ??_R0?AVCFileDialog@@@8    67dca9a4     LoadSaveDlg.obj
 0003:000009c0       ??_R0?AVCCommonDialog@@@8  67dca9c0     LoadSaveDlg.obj
 0003:000009ec       ??_R0?AVCLScanDlg@@@8      67dca9ec     LScanDlg.obj
 0003:00000a1c       ??_R0?AVCPixProAbsSubDlg@@@8 67dcaa1c     PixProAbsSubDlg.obj
 0003:00000a4c       ??_R0?AVCPixProDlg@@@8     67dcaa4c     PixProDlg.obj
 0003:00000a80       ??_R0?AVCPixProIntScaleDlg@@@8 67dcaa80     PixProIntScaleDlg.obj
 0003:00000abc       ??_R0?AVCPixProRefImageDlg@@@8 67dcaabc     PixProRefImageDlg.obj
 0003:00000af8       ??_R0?AVCPixProUflowSubDlg@@@8 67dcaaf8     PixProUflowSubDlg.obj
 0003:00000b30       ??_R0?AVCPixProWAvgDlg@@@8 67dcab30     PixProWAvgDlg.obj
 0003:00000b68       ?m_FormatInfo@CRawFileDlg@@1PAVSapFormatInfo@@A 67dcab68     RawFileDlg.obj
 0003:00000c20       ??_R0?AVCRawFileDlg@@@8    67dcac20     RawFileDlg.obj
 0003:00000c3c       __pIncludeInitManaged      67dcac3c     SapClassGui.obj
 0003:00000c54       ??_R0?AUThank_you@Define_the_symbol__ATL_MIXED@@@8 67dcac54     SapClassGui.obj
 0003:00000ca0       ??_R0?AVCTiffFileDlg@@@8   67dcaca0     TiffFileDlg.obj
 0003:00000ccc       ??_R0?AVCViewDlg@@@8       67dcaccc     ViewDlg.obj
 0003:00000ce4       ??_R0?AVtype_info@@@8      67dcace4     msvcrtd:ti_inst.obj
 0003:00000cfc       ___security_cookie         67dcacfc     msvcrtd:gs_cookie.obj
 0003:00000d00       ___security_cookie_complement 67dcad00     msvcrtd:gs_cookie.obj
 0003:00000d10       ?_RTC_ErrorLevels@@3PAHA   67dcad10     msvcrtd:_error_.obj
 0003:00000d24       ___native_dllmain_reason   67dcad24     msvcrtd:natstart.obj
 0003:00000d28       ___native_vcclrit_reason   67dcad28     msvcrtd:natstart.obj
 0003:00000d30       ?g_pszUpdateEventName@@3PBDB 67dcad30     atlsd:Externs.obj
 0003:00000d34       ?g_pszAllocFileMapName@@3PBDB 67dcad34     atlsd:Externs.obj
 0003:00000d38       ?g_pszKernelObjFmt@@3PBDB  67dcad38     atlsd:Externs.obj
 0003:00000d3c       ??_R0?AVCAtlException@ATL@@@8 67dcad3c     atlsd:Externs.obj
 0003:00000d64       ?m_TiffCompressionTypes@CLoadSaveDlg@@1PAV?$CStringT@DV?$StrTraitMFC_DLL@DV?$ChTraitsCRT@D@ATL@@@@@ATL@@A 67dcad64     LoadSaveDlg.obj
 0003:00000d74       __afxForceEXTDLL           67dcad74     SapClassGui.obj
 0003:00000d78       ___@@_PchSym_@00@UkiltiznLurovhUgvovwbmvLwzohzUhzkvizUxozhhvhUtfrUwvyftOmvgPCAAIUhzkxozhhtfrOlyq@ 67dcad78     SapClassGui.obj
 0003:00000d90       ?s_pfnPrevHook@CNoUIAssertHook@ATL@@0P6AHHPADPAH@ZA 67dcad90     SapClassGui.obj
 0003:00000d94       ?m_bInitFailed@CAtlBaseModule@ATL@@2_NA 67dcad94     SapClassGui.obj
 0003:00000d98       ?s_pLog@CFixedStringMgr@ATL@@2PAVIFixedStringLog@2@A 67dcad98     SapClassGui.obj
 0003:00000d9c       ?clash@Define_the_symbol__ATL_MIXED@@3UThank_you@1@A 67dcad9c     SapClassGui.obj
 0003:00000da0       ?clash@Inconsistent_definition_of_symbol__ATL_MIXED@@3U_Please_define_it_the_same_throughout_your_project@1@A 67dcada0     SapClassGui.obj
 0003:00000da4       ?_pAtlAutoThreadModule@ATL@@3PAUIAtlAutoThreadModule@1@A 67dcada4     mfcs90d:nolib.obj
 0003:00000da8       __afxForceEXCLUDE          67dcada8     mfcs90d:nolib.obj
 0003:00000dac       ?_pPerfRegFunc@ATL@@3P6AJPAUHINSTANCE__@@@ZA 67dcadac     mfcs90d:nolib.obj
 0003:00000db0       ?_pPerfUnRegFunc@ATL@@3P6AJXZA 67dcadb0     mfcs90d:nolib.obj
 0003:00000db4       ?_AtlRegisterPerUser@ATL@@3_NA 67dcadb4     mfcs90d:nolib.obj
 0003:00000db8       ?_pAtlModule@ATL@@3PAVCAtlModule@1@A 67dcadb8     mfcs90d:nolib.obj
 0003:00000dbc       ?m_libid@CAtlModule@ATL@@2U_GUID@@A 67dcadbc     mfcs90d:nolib.obj
 0003:00000dcc       ?_pModule@ATL@@3PAVCComModule@1@A 67dcadcc     mfcs90d:nolib.obj
 0003:00000dd0       ?ATL_CREATE_OBJECT@CComApartment@ATL@@2IA 67dcadd0     mfcs90d:nolib.obj
 0003:00000dd4       ?WM_DESTROYMODELESS@CDHtmlDialog@@1IA 67dcadd4     mfcs90d:nolib.obj
 0003:00000dd8       __afxForceSTDAFX           67dcadd8     mfcs90d:stdafx.obj
 0003:00000de4       ?wsprintffp@@3P6AHPADPBDZZA 67dcade4     msvcrtd:_error_.obj
 0003:00001114       __forceCRTManifestRTM      67dcb114     msvcrtd:crtmanifestrtm.obj
 0003:00001118       ?__type_info_root_node@@3U__type_info_node@@A 67dcb118     msvcrtd:tncleanup.obj
 0003:0000112c       ?g_Allocator@@3VCAtlAllocator@@A 67dcb12c     atlsd:Externs.obj
 0003:00001160       ?s_trace@CTrace@ATL@@2V12@A 67dcb160     atlsd:Externs.obj
 0003:00001168       ?atlTraceGeneral@ATL@@3VCTraceCategory@1@A 67dcb168     atlsd:atltrace.obj
 0003:0000116c       ?atlTraceCOM@ATL@@3VCTraceCategory@1@A 67dcb16c     atlsd:atltrace.obj
 0003:00001170       ?atlTraceQI@ATL@@3VCTraceCategory@1@A 67dcb170     atlsd:atltrace.obj
 0003:00001174       ?atlTraceRegistrar@ATL@@3VCTraceCategory@1@A 67dcb174     atlsd:atltrace.obj
 0003:00001178       ?atlTraceRefcount@ATL@@3VCTraceCategory@1@A 67dcb178     atlsd:atltrace.obj
 0003:0000117c       ?atlTraceWindowing@ATL@@3VCTraceCategory@1@A 67dcb17c     atlsd:atltrace.obj
 0003:00001180       ?atlTraceControls@ATL@@3VCTraceCategory@1@A 67dcb180     atlsd:atltrace.obj
 0003:00001184       ?atlTraceHosting@ATL@@3VCTraceCategory@1@A 67dcb184     atlsd:atltrace.obj
 0003:00001188       ?atlTraceDBClient@ATL@@3VCTraceCategory@1@A 67dcb188     atlsd:atltrace.obj
 0003:0000118c       ?atlTraceDBProvider@ATL@@3VCTraceCategory@1@A 67dcb18c     atlsd:atltrace.obj
 0003:00001190       ?atlTraceSnapin@ATL@@3VCTraceCategory@1@A 67dcb190     atlsd:atltrace.obj
 0003:00001194       ?atlTraceNotImpl@ATL@@3VCTraceCategory@1@A 67dcb194     atlsd:atltrace.obj
 0003:00001198       ?atlTraceAllocation@ATL@@3VCTraceCategory@1@A 67dcb198     atlsd:atltrace.obj
 0003:0000119c       ?atlTraceException@ATL@@3VCTraceCategory@1@A 67dcb19c     atlsd:atltrace.obj
 0003:000011a0       ?atlTraceTime@ATL@@3VCTraceCategory@1@A 67dcb1a0     atlsd:atltrace.obj
 0003:000011a4       ?atlTraceCache@ATL@@3VCTraceCategory@1@A 67dcb1a4     atlsd:atltrace.obj
 0003:000011a8       ?atlTraceStencil@ATL@@3VCTraceCategory@1@A 67dcb1a8     atlsd:atltrace.obj
 0003:000011ac       ?atlTraceString@ATL@@3VCTraceCategory@1@A 67dcb1ac     atlsd:atltrace.obj
 0003:000011b0       ?atlTraceMap@ATL@@3VCTraceCategory@1@A 67dcb1b0     atlsd:atltrace.obj
 0003:000011b4       ?atlTraceUtil@ATL@@3VCTraceCategory@1@A 67dcb1b4     atlsd:atltrace.obj
 0003:000011b8       ?atlTraceSecurity@ATL@@3VCTraceCategory@1@A 67dcb1b8     atlsd:atltrace.obj
 0003:000011bc       ?atlTraceSync@ATL@@3VCTraceCategory@1@A 67dcb1bc     atlsd:atltrace.obj
 0003:000011c0       ?atlTraceISAPI@ATL@@3VCTraceCategory@1@A 67dcb1c0     atlsd:atltrace.obj
 0003:000011c4       ?atlTraceUser@ATL@@3VCTraceCategory@1@A 67dcb1c4     atlsd:atltrace.obj
 0003:000011c8       ?atlTraceUser2@ATL@@3VCTraceCategory@1@A 67dcb1c8     atlsd:atltrace.obj
 0003:000011cc       ?atlTraceUser3@ATL@@3VCTraceCategory@1@A 67dcb1cc     atlsd:atltrace.obj
 0003:000011d0       ?atlTraceUser4@ATL@@3VCTraceCategory@1@A 67dcb1d0     atlsd:atltrace.obj
 0003:000011d4       __adjust_fdiv              67dcb1d4     <common>
 0003:000011d8       ___native_startup_state    67dcb1d8     <common>
 0003:000011dc       ___native_startup_lock     67dcb1dc     <common>
 0003:000011e0       ___sse2_available          67dcb1e0     <common>
 0003:000011e4       ___dyn_tls_init_callback   67dcb1e4     <common>
 0003:000011e8       ___onexitend               67dcb1e8     <common>
 0003:000011ec       ___onexitbegin             67dcb1ec     <common>

 entry point at        0001:000293d0

 Static symbols

 0001:fffff000       __unwindfunclet$??1CCompDlg@@UAE@XZ$0 67d80000 f   SapClassGui.obj
 0001:fffff000       __unwindfunclet$??1CPixProDlg@@UAE@XZ$0 67d80000 f   SapClassGui.obj
 0001:fffff000       __unwindfunclet$??1CCamVicDlg@@UAE@XZ$0 67d80000 f   SapClassGui.obj
 0001:fffff000       __unwindfunclet$??1CLScanDlg@@UAE@XZ$0 67d80000 f   SapClassGui.obj
 0001:fffff000       __unwindfunclet$??1CRawFileDlg@@UAE@XZ$0 67d80000 f   RawFileDlg.obj
 0001:fffff000       __unwindfunclet$??1CPixProIntScaleDlg@@UAE@XZ$0 67d80000 f   PixProIntScaleDlg.obj
 0001:fffff000       __unwindfunclet$??1CAcqConfigDlg@@UAE@XZ$0 67d80000 f   SapClassGui.obj
 0001:fffff000       __unwindfunclet$??1CGioBidirectionalDlg@@UAE@XZ$0 67d80000 f   SapClassGui.obj
 0001:fffff000       __unwindfunclet$??1CGioOutputDlg@@UAE@XZ$0 67d80000 f   SapClassGui.obj
 0001:fffff000       __unwindfunclet$??1CGioInputDlg@@UAE@XZ$0 67d80000 f   SapClassGui.obj
 0001:fffff000       __unwindfunclet$??1CViewDlg@@UAE@XZ$0 67d80000 f   ViewDlg.obj
 0001:fffff000       __unwindfunclet$??1CBufDlg@@UAE@XZ$0 67d80000 f   SapClassGui.obj
 0001:fffff000       __unwindfunclet$??1CPixProWAvgDlg@@UAE@XZ$0 67d80000 f   PixProWAvgDlg.obj
 0001:fffff000       __unwindfunclet$??HATL@@YA?AV?$CStringT@DV?$StrTraitMFC_DLL@DV?$ChTraitsCRT@D@ATL@@@@@0@ABV10@0@Z$0 67d80000 f   CamVicDlg.obj
 0001:fffff000       __unwindfunclet$??1CAScanDlg@@UAE@XZ$0 67d80000 f   SapClassGui.obj
 0001:fffff000       __unwindfunclet$??1CAcqDlg@@UAE@XZ$0 67d80000 f   SapClassGui.obj
 0001:fffff008       __ehhandler$??1CRawFileDlg@@UAE@XZ 67d80008 f   RawFileDlg.obj
 0001:fffff008       __ehhandler$??1CAcqDlg@@UAE@XZ 67d80008 f   SapClassGui.obj
 0001:fffff008       __unwindfunclet$??1CPixProDlg@@UAE@XZ$1 67d80008 f   SapClassGui.obj
 0001:fffff008       __unwindfunclet$??1CAScanDlg@@UAE@XZ$1 67d80008 f   SapClassGui.obj
 0001:fffff008       __unwindfunclet$??1CCamVicDlg@@UAE@XZ$1 67d80008 f   SapClassGui.obj
 0001:fffff008       __unwindfunclet$??1CLScanDlg@@UAE@XZ$1 67d80008 f   SapClassGui.obj
 0001:fffff008       __ehhandler$??1CPixProIntScaleDlg@@UAE@XZ 67d80008 f   PixProIntScaleDlg.obj
 0001:fffff008       __unwindfunclet$??1CBufDlg@@UAE@XZ$1 67d80008 f   SapClassGui.obj
 0001:fffff008       __unwindfunclet$??1CCompDlg@@UAE@XZ$1 67d80008 f   SapClassGui.obj
 0001:fffff008       __ehhandler$??1CPixProWAvgDlg@@UAE@XZ 67d80008 f   PixProWAvgDlg.obj
 0001:fffff008       __unwindfunclet$??1CAcqConfigDlg@@UAE@XZ$1 67d80008 f   SapClassGui.obj
 0001:fffff008       __unwindfunclet$??1CGioBidirectionalDlg@@UAE@XZ$1 67d80008 f   SapClassGui.obj
 0001:fffff008       __unwindfunclet$??1CGioInputDlg@@UAE@XZ$1 67d80008 f   SapClassGui.obj
 0001:fffff008       __unwindfunclet$??1CViewDlg@@UAE@XZ$1 67d80008 f   ViewDlg.obj
 0001:fffff008       __unwindfunclet$??1CGioOutputDlg@@UAE@XZ$1 67d80008 f   SapClassGui.obj
 0001:fffff012       __ehhandler$??HATL@@YA?AV?$CStringT@DV?$StrTraitMFC_DLL@DV?$ChTraitsCRT@D@ATL@@@@@0@ABV10@0@Z 67d80012 f   CamVicDlg.obj
 0001:fffff013       __unwindfunclet$??1CGioBidirectionalDlg@@UAE@XZ$2 67d80013 f   SapClassGui.obj
 0001:fffff013       __unwindfunclet$??1CGioOutputDlg@@UAE@XZ$2 67d80013 f   SapClassGui.obj
 0001:fffff013       __unwindfunclet$??1CBufDlg@@UAE@XZ$2 67d80013 f   SapClassGui.obj
 0001:fffff013       __unwindfunclet$??1CPixProDlg@@UAE@XZ$2 67d80013 f   SapClassGui.obj
 0001:fffff013       __unwindfunclet$??1CViewDlg@@UAE@XZ$2 67d80013 f   ViewDlg.obj
 0001:fffff013       __unwindfunclet$??1CGioInputDlg@@UAE@XZ$2 67d80013 f   SapClassGui.obj
 0001:fffff01d       __unwindfunclet$??1CCamVicDlg@@UAE@XZ$2 67d8001d f   SapClassGui.obj
 0001:fffff01d       __unwindfunclet$??1CCompDlg@@UAE@XZ$2 67d8001d f   SapClassGui.obj
 0001:fffff01d       __unwindfunclet$??1CAScanDlg@@UAE@XZ$2 67d8001d f   SapClassGui.obj
 0001:fffff01d       __unwindfunclet$??1CLScanDlg@@UAE@XZ$2 67d8001d f   SapClassGui.obj
 0001:fffff01d       __unwindfunclet$??1CAcqConfigDlg@@UAE@XZ$2 67d8001d f   SapClassGui.obj
 0001:fffff021       __unwindfunclet$??1CViewDlg@@UAE@XZ$3 67d80021 f   ViewDlg.obj
 0001:fffff021       __unwindfunclet$??1CPixProDlg@@UAE@XZ$3 67d80021 f   SapClassGui.obj
 0001:fffff021       __unwindfunclet$??1CGioOutputDlg@@UAE@XZ$3 67d80021 f   SapClassGui.obj
 0001:fffff021       __unwindfunclet$??1CGioInputDlg@@UAE@XZ$3 67d80021 f   SapClassGui.obj
 0001:fffff021       __unwindfunclet$??1CGioBidirectionalDlg@@UAE@XZ$3 67d80021 f   SapClassGui.obj
 0001:fffff028       __ehhandler$??1CAScanDlg@@UAE@XZ 67d80028 f   SapClassGui.obj
 0001:fffff028       __unwindfunclet$??1CCamVicDlg@@UAE@XZ$3 67d80028 f   SapClassGui.obj
 0001:fffff028       __unwindfunclet$??1CCompDlg@@UAE@XZ$3 67d80028 f   SapClassGui.obj
 0001:fffff028       __unwindfunclet$??1CAcqConfigDlg@@UAE@XZ$3 67d80028 f   SapClassGui.obj
 0001:fffff028       __ehhandler$??1CLScanDlg@@UAE@XZ 67d80028 f   SapClassGui.obj
 0001:fffff02b       __ehhandler$??1CBufDlg@@UAE@XZ 67d8002b f   SapClassGui.obj
 0001:fffff02f       __ehhandler$??1CViewDlg@@UAE@XZ 67d8002f f   ViewDlg.obj
 0001:fffff02f       __ehhandler$??1CGioInputDlg@@UAE@XZ 67d8002f f   SapClassGui.obj
 0001:fffff02f       __unwindfunclet$??1CPixProDlg@@UAE@XZ$4 67d8002f f   SapClassGui.obj
 0001:fffff02f       __ehhandler$??1CGioBidirectionalDlg@@UAE@XZ 67d8002f f   SapClassGui.obj
 0001:fffff02f       __unwindfunclet$??1CGioOutputDlg@@UAE@XZ$4 67d8002f f   SapClassGui.obj
 0001:fffff036       __unwindfunclet$??1CCamVicDlg@@UAE@XZ$4 67d80036 f   SapClassGui.obj
 0001:fffff036       __unwindfunclet$??1CCompDlg@@UAE@XZ$4 67d80036 f   SapClassGui.obj
 0001:fffff036       __unwindfunclet$??1CAcqConfigDlg@@UAE@XZ$4 67d80036 f   SapClassGui.obj
 0001:fffff03d       __unwindfunclet$??1CGioOutputDlg@@UAE@XZ$5 67d8003d f   SapClassGui.obj
 0001:fffff03d       __ehhandler$??1CPixProDlg@@UAE@XZ 67d8003d f   SapClassGui.obj
 0001:fffff044       __unwindfunclet$??1CCompDlg@@UAE@XZ$5 67d80044 f   SapClassGui.obj
 0001:fffff044       __unwindfunclet$??1CCamVicDlg@@UAE@XZ$5 67d80044 f   SapClassGui.obj
 0001:fffff044       __unwindfunclet$??1CAcqConfigDlg@@UAE@XZ$5 67d80044 f   SapClassGui.obj
 0001:fffff04b       __ehhandler$??1CGioOutputDlg@@UAE@XZ 67d8004b f   SapClassGui.obj
 0001:fffff052       __unwindfunclet$??1CCamVicDlg@@UAE@XZ$6 67d80052 f   SapClassGui.obj
 0001:fffff052       __ehhandler$??1CCompDlg@@UAE@XZ 67d80052 f   SapClassGui.obj
 0001:fffff052       __unwindfunclet$??1CAcqConfigDlg@@UAE@XZ$6 67d80052 f   SapClassGui.obj
 0001:fffff060       __unwindfunclet$??1CCamVicDlg@@UAE@XZ$7 67d80060 f   SapClassGui.obj
 0001:fffff06a       __ehhandler$??1CAcqConfigDlg@@UAE@XZ 67d8006a f   SapClassGui.obj
 0001:fffff06e       __unwindfunclet$??1CCamVicDlg@@UAE@XZ$8 67d8006e f   SapClassGui.obj
 0001:fffff086       __ehhandler$??1CCamVicDlg@@UAE@XZ 67d80086 f   SapClassGui.obj
 0001:00002770       ?StringValidateDestA@@YGJPADIPAII@Z 67d83770 f   AcqConfigDlg.obj
 0001:000027e0       ?StringLengthWorkerA@@YGJPBDIPAI@Z 67d837e0 f   AcqConfigDlg.obj
 0001:00002860       ?StringCopyWorkerA@@YGJPADIPAIPBDI@Z 67d83860 f   AcqConfigDlg.obj
 0001:00002910       ?StringVPrintfWorkerA@@YGJPADIPAIPBD0@Z 67d83910 f   AcqConfigDlg.obj
 0001:00003c00       ?StringValidateDestA@@YGJPADIPAII@Z 67d84c00 f   AcqDlg.obj
 0001:00003c70       ?StringLengthWorkerA@@YGJPBDIPAI@Z 67d84c70 f   AcqDlg.obj
 0001:00003cf0       ?StringVPrintfWorkerA@@YGJPADIPAIPBD0@Z 67d84cf0 f   AcqDlg.obj
 0001:00005550       ?StringValidateDestA@@YGJPADIPAII@Z 67d86550 f   AScanDlg.obj
 0001:000055c0       ?StringLengthWorkerA@@YGJPBDIPAI@Z 67d865c0 f   AScanDlg.obj
 0001:00005640       ?StringVPrintfWorkerA@@YGJPADIPAIPBD0@Z 67d86640 f   AScanDlg.obj
 0001:000071d0       ?StringValidateDestA@@YGJPADIPAII@Z 67d881d0 f   BrowseDirDlg.obj
 0001:00007240       ?StringLengthWorkerA@@YGJPBDIPAI@Z 67d88240 f   BrowseDirDlg.obj
 0001:000072c0       ?StringCopyWorkerA@@YGJPADIPAIPBDI@Z 67d882c0 f   BrowseDirDlg.obj
 0001:0000c410       ?StringValidateDestA@@YGJPADIPAII@Z 67d8d410 f   CamVicDlg.obj
 0001:0000c480       ?StringLengthWorkerA@@YGJPBDIPAI@Z 67d8d480 f   CamVicDlg.obj
 0001:0000c500       ?StringCopyWorkerA@@YGJPADIPAIPBDI@Z 67d8d500 f   CamVicDlg.obj
 0001:0000c5b0       ?StringVPrintfWorkerA@@YGJPADIPAIPBD0@Z 67d8d5b0 f   CamVicDlg.obj
 0001:00016af0       ?StringValidateDestA@@YGJPADIPAII@Z 67d97af0 f   GioBidirectionalDlg.obj
 0001:00016b60       ?StringLengthWorkerA@@YGJPBDIPAI@Z 67d97b60 f   GioBidirectionalDlg.obj
 0001:00016be0       ?StringCopyWorkerA@@YGJPADIPAIPBDI@Z 67d97be0 f   GioBidirectionalDlg.obj
 0001:00018420       ?StringValidateDestA@@YGJPADIPAII@Z 67d99420 f   GioInputDlg.obj
 0001:00018490       ?StringLengthWorkerA@@YGJPBDIPAI@Z 67d99490 f   GioInputDlg.obj
 0001:00018510       ?StringCopyWorkerA@@YGJPADIPAIPBDI@Z 67d99510 f   GioInputDlg.obj
 0001:0001a360       ?StringValidateDestA@@YGJPADIPAII@Z 67d9b360 f   GioOutputDlg.obj
 0001:0001a3d0       ?StringLengthWorkerA@@YGJPBDIPAI@Z 67d9b3d0 f   GioOutputDlg.obj
 0001:0001a450       ?StringCopyWorkerA@@YGJPADIPAIPBDI@Z 67d9b450 f   GioOutputDlg.obj
 0001:0001f2f0       ?StringValidateDestA@@YGJPADIPAII@Z 67da02f0 f   LoadSaveDlg.obj
 0001:0001f360       ?StringLengthWorkerA@@YGJPBDIPAI@Z 67da0360 f   LoadSaveDlg.obj
 0001:0001f3e0       ?StringCopyWorkerA@@YGJPADIPAIPBDI@Z 67da03e0 f   LoadSaveDlg.obj
 0001:000219c0       ?StringValidateDestA@@YGJPADIPAII@Z 67da29c0 f   LScanDlg.obj
 0001:00021a30       ?StringLengthWorkerA@@YGJPBDIPAI@Z 67da2a30 f   LScanDlg.obj
 0001:00021ab0       ?StringVPrintfWorkerA@@YGJPADIPAIPBD0@Z 67da2ab0 f   LScanDlg.obj
 0001:00023910       ?StringValidateDestA@@YGJPADIPAII@Z 67da4910 f   PixProDlg.obj
 0001:00023980       ?StringLengthWorkerA@@YGJPBDIPAI@Z 67da4980 f   PixProDlg.obj
 0001:00023a00       ?StringCopyWorkerA@@YGJPADIPAIPBDI@Z 67da4a00 f   PixProDlg.obj
 0001:00023ab0       ?StringVPrintfWorkerA@@YGJPADIPAIPBD0@Z 67da4ab0 f   PixProDlg.obj
 0001:00028db0       ?ArrayUnwindFilter@@YAHPAU_EXCEPTION_POINTERS@@@Z 67da9db0 f   msvcrtd:ehvecdtr.obj
 0001:00029030       _pre_c_init                67daa030 f   msvcrtd:crtdll.obj
 0001:00029400       ___DllMainCRTStartup       67daa400 f   msvcrtd:crtdll.obj
 0001:00029600       ?DebuggerProbe@@YAHK@Z     67daa600 f   msvcrtd:_error_.obj
 0001:000296f0       ?failwithmessage@@YAXPAXHHPBD@Z 67daa6f0 f   msvcrtd:_error_.obj
 0001:00029900       ?DebuggerRuntime@@YAHKHPAXPB_W@Z 67daa900 f   msvcrtd:_error_.obj
 0001:00029be0       ?_getMemBlockDataString@@YAXPAD00I@Z 67daabe0 f   msvcrtd:_error_.obj
 0001:00029fc0       _has_osfxsr_set            67daafc0 f   msvcrtd:cpu_disp.obj
 0001:0002a700       ?GetPdbDll@@YAPAUHINSTANCE__@@XZ 67dab700 f   msvcrtd:_pdblkup_.obj
 0001:0002bfe0       ?Init@@YG_NXZ              67dacfe0 f   atlsd:Externs.obj
 0001:0002db40       ?ShouldTraceOutput@ATL@@YG_NKKIPAPBVCAtlTraceCategory@@PAP6AHHPBDH11ZZ@Z 67daeb40 f   atlsd:AtlDebugAPI.obj
 0001:0002fcc0       __unwindfunclet$??0CAcqConfigDlg@@QAE@PAVCWnd@@W4ServerCategory@0@@Z$0 67db0cc0 f   AcqConfigDlg.obj
 0001:0002fcc8       __unwindfunclet$??0CAcqConfigDlg@@QAE@PAVCWnd@@W4ServerCategory@0@@Z$1 67db0cc8 f   AcqConfigDlg.obj
 0001:0002fcdd       __unwindfunclet$??0CAcqConfigDlg@@QAE@PAVCWnd@@W4ServerCategory@0@@Z$2 67db0cdd f   AcqConfigDlg.obj
 0001:0002fce8       __unwindfunclet$??0CAcqConfigDlg@@QAE@PAVCWnd@@W4ServerCategory@0@@Z$3 67db0ce8 f   AcqConfigDlg.obj
 0001:0002fcf6       __unwindfunclet$??0CAcqConfigDlg@@QAE@PAVCWnd@@W4ServerCategory@0@@Z$4 67db0cf6 f   AcqConfigDlg.obj
 0001:0002fd04       __unwindfunclet$??0CAcqConfigDlg@@QAE@PAVCWnd@@W4ServerCategory@0@@Z$5 67db0d04 f   AcqConfigDlg.obj
 0001:0002fd12       __unwindfunclet$??0CAcqConfigDlg@@QAE@PAVCWnd@@W4ServerCategory@0@@Z$6 67db0d12 f   AcqConfigDlg.obj
 0001:0002fd2a       __unwindfunclet$??0CAcqConfigDlg@@QAE@PAVCWnd@@W4ServerCategory@0@@Z$8 67db0d2a f   AcqConfigDlg.obj
 0001:0002fd42       __unwindfunclet$??0CAcqConfigDlg@@QAE@PAVCWnd@@W4ServerCategory@0@@Z$9 67db0d42 f   AcqConfigDlg.obj
 0001:0002fd5a       __ehhandler$??0CAcqConfigDlg@@QAE@PAVCWnd@@W4ServerCategory@0@@Z 67db0d5a f   AcqConfigDlg.obj
 0001:0002fd75       __unwindfunclet$??0CAcqConfigDlg@@QAE@PAVCWnd@@VSapLocation@@PBDW4ServerCategory@0@@Z$0 67db0d75 f   AcqConfigDlg.obj
 0001:0002fd87       __unwindfunclet$??0CAcqConfigDlg@@QAE@PAVCWnd@@VSapLocation@@PBDW4ServerCategory@0@@Z$1 67db0d87 f   AcqConfigDlg.obj
 0001:0002fd8f       __unwindfunclet$??0CAcqConfigDlg@@QAE@PAVCWnd@@VSapLocation@@PBDW4ServerCategory@0@@Z$2 67db0d8f f   AcqConfigDlg.obj
 0001:0002fda4       __unwindfunclet$??0CAcqConfigDlg@@QAE@PAVCWnd@@VSapLocation@@PBDW4ServerCategory@0@@Z$3 67db0da4 f   AcqConfigDlg.obj
 0001:0002fdaf       __unwindfunclet$??0CAcqConfigDlg@@QAE@PAVCWnd@@VSapLocation@@PBDW4ServerCategory@0@@Z$4 67db0daf f   AcqConfigDlg.obj
 0001:0002fdbd       __unwindfunclet$??0CAcqConfigDlg@@QAE@PAVCWnd@@VSapLocation@@PBDW4ServerCategory@0@@Z$5 67db0dbd f   AcqConfigDlg.obj
 0001:0002fdcb       __unwindfunclet$??0CAcqConfigDlg@@QAE@PAVCWnd@@VSapLocation@@PBDW4ServerCategory@0@@Z$6 67db0dcb f   AcqConfigDlg.obj
 0001:0002fdd9       __unwindfunclet$??0CAcqConfigDlg@@QAE@PAVCWnd@@VSapLocation@@PBDW4ServerCategory@0@@Z$7 67db0dd9 f   AcqConfigDlg.obj
 0001:0002fdf1       __unwindfunclet$??0CAcqConfigDlg@@QAE@PAVCWnd@@VSapLocation@@PBDW4ServerCategory@0@@Z$9 67db0df1 f   AcqConfigDlg.obj
 0001:0002fe09       __unwindfunclet$??0CAcqConfigDlg@@QAE@PAVCWnd@@VSapLocation@@PBDW4ServerCategory@0@@Z$10 67db0e09 f   AcqConfigDlg.obj
 0001:0002fe21       __ehhandler$??0CAcqConfigDlg@@QAE@PAVCWnd@@VSapLocation@@PBDW4ServerCategory@0@@Z 67db0e21 f   AcqConfigDlg.obj
 0001:0002fe46       __unwindfunclet$??0CAcqConfigDlg@@QAE@PAVCWnd@@PAVSapAcquisition@@PBD@Z$0 67db0e46 f   AcqConfigDlg.obj
 0001:0002fe4e       __unwindfunclet$??0CAcqConfigDlg@@QAE@PAVCWnd@@PAVSapAcquisition@@PBD@Z$1 67db0e4e f   AcqConfigDlg.obj
 0001:0002fe63       __unwindfunclet$??0CAcqConfigDlg@@QAE@PAVCWnd@@PAVSapAcquisition@@PBD@Z$2 67db0e63 f   AcqConfigDlg.obj
 0001:0002fe6e       __unwindfunclet$??0CAcqConfigDlg@@QAE@PAVCWnd@@PAVSapAcquisition@@PBD@Z$3 67db0e6e f   AcqConfigDlg.obj
 0001:0002fe7c       __unwindfunclet$??0CAcqConfigDlg@@QAE@PAVCWnd@@PAVSapAcquisition@@PBD@Z$4 67db0e7c f   AcqConfigDlg.obj
 0001:0002fe8a       __unwindfunclet$??0CAcqConfigDlg@@QAE@PAVCWnd@@PAVSapAcquisition@@PBD@Z$5 67db0e8a f   AcqConfigDlg.obj
 0001:0002fe98       __unwindfunclet$??0CAcqConfigDlg@@QAE@PAVCWnd@@PAVSapAcquisition@@PBD@Z$6 67db0e98 f   AcqConfigDlg.obj
 0001:0002feb0       __unwindfunclet$??0CAcqConfigDlg@@QAE@PAVCWnd@@PAVSapAcquisition@@PBD@Z$8 67db0eb0 f   AcqConfigDlg.obj
 0001:0002fec8       __unwindfunclet$??0CAcqConfigDlg@@QAE@PAVCWnd@@PAVSapAcquisition@@PBD@Z$9 67db0ec8 f   AcqConfigDlg.obj
 0001:0002fee0       __unwindfunclet$??0CAcqConfigDlg@@QAE@PAVCWnd@@PAVSapAcquisition@@PBD@Z$11 67db0ee0 f   AcqConfigDlg.obj
 0001:0002fef2       __ehhandler$??0CAcqConfigDlg@@QAE@PAVCWnd@@PAVSapAcquisition@@PBD@Z 67db0ef2 f   AcqConfigDlg.obj
 0001:0002ff1a       __unwindfunclet$?UpdateAcquisition@CAcqConfigDlg@@IAEHXZ$0 67db0f1a f   AcqConfigDlg.obj
 0001:0002ff2c       __ehhandler$?UpdateAcquisition@CAcqConfigDlg@@IAEHXZ 67db0f2c f   AcqConfigDlg.obj
 0001:0002ff51       __unwindfunclet$?LoadSettings@CAcqConfigDlg@@IAEXXZ$0 67db0f51 f   AcqConfigDlg.obj
 0001:0002ff63       __unwindfunclet$?LoadSettings@CAcqConfigDlg@@IAEXXZ$1 67db0f63 f   AcqConfigDlg.obj
 0001:0002ff75       __unwindfunclet$?LoadSettings@CAcqConfigDlg@@IAEXXZ$2 67db0f75 f   AcqConfigDlg.obj
 0001:0002ff87       __ehhandler$?LoadSettings@CAcqConfigDlg@@IAEXXZ 67db0f87 f   AcqConfigDlg.obj
 0001:0002ffa2       __unwindfunclet$?SetDirectories@CAcqConfigDlg@@IAEXXZ$0 67db0fa2 f   AcqConfigDlg.obj
 0001:0002ffb7       __ehhandler$?SetDirectories@CAcqConfigDlg@@IAEXXZ 67db0fb7 f   AcqConfigDlg.obj
 0001:0002ffdf       __unwindfunclet$?OnConfigBrowse@CAcqConfigDlg@@IAEXXZ$0 67db0fdf f   AcqConfigDlg.obj
 0001:0002ffe7       __unwindfunclet$?OnConfigBrowse@CAcqConfigDlg@@IAEXXZ$1 67db0fe7 f   AcqConfigDlg.obj
 0001:0002fff9       __ehhandler$?OnConfigBrowse@CAcqConfigDlg@@IAEXXZ 67db0ff9 f   AcqConfigDlg.obj
 0001:00030014       __unwindfunclet$?UpdateNames@CAcqConfigDlg@@IAEXXZ$0 67db1014 f   AcqConfigDlg.obj
 0001:00030026       __ehhandler$?UpdateNames@CAcqConfigDlg@@IAEXXZ 67db1026 f   AcqConfigDlg.obj
 0001:00030050       __unwindfunclet$??1CAcqConfigDlg@@UAE@XZ$0 67db1050 f   AcqConfigDlg.obj
 0001:00030058       __unwindfunclet$??1CAcqConfigDlg@@UAE@XZ$1 67db1058 f   AcqConfigDlg.obj
 0001:0003006d       __unwindfunclet$??1CAcqConfigDlg@@UAE@XZ$2 67db106d f   AcqConfigDlg.obj
 0001:00030078       __unwindfunclet$??1CAcqConfigDlg@@UAE@XZ$3 67db1078 f   AcqConfigDlg.obj
 0001:00030086       __unwindfunclet$??1CAcqConfigDlg@@UAE@XZ$4 67db1086 f   AcqConfigDlg.obj
 0001:00030094       __unwindfunclet$??1CAcqConfigDlg@@UAE@XZ$5 67db1094 f   AcqConfigDlg.obj
 0001:000300a2       __unwindfunclet$??1CAcqConfigDlg@@UAE@XZ$6 67db10a2 f   AcqConfigDlg.obj
 0001:000300ba       __ehhandler$??1CAcqConfigDlg@@UAE@XZ 67db10ba f   AcqConfigDlg.obj
 0001:000300e0       __unwindfunclet$??0CAcqDlg@@QAE@PAVCWnd@@PAVSapAcquisition@@@Z$0 67db10e0 f   AcqDlg.obj
 0001:000300e8       __ehhandler$??0CAcqDlg@@QAE@PAVCWnd@@PAVSapAcquisition@@@Z 67db10e8 f   AcqDlg.obj
 0001:00030110       __unwindfunclet$??1CAcqDlg@@UAE@XZ$0 67db1110 f   AcqDlg.obj
 0001:00030118       __ehhandler$??1CAcqDlg@@UAE@XZ 67db1118 f   AcqDlg.obj
 0001:00030140       __unwindfunclet$??0CAScanDlg@@QAE@PAVCWnd@@PAVSapAcquisition@@@Z$0 67db1140 f   AScanDlg.obj
 0001:00030148       __unwindfunclet$??0CAScanDlg@@QAE@PAVCWnd@@PAVSapAcquisition@@@Z$1 67db1148 f   AScanDlg.obj
 0001:0003015d       __unwindfunclet$??0CAScanDlg@@QAE@PAVCWnd@@PAVSapAcquisition@@@Z$2 67db115d f   AScanDlg.obj
 0001:00030168       __ehhandler$??0CAScanDlg@@QAE@PAVCWnd@@PAVSapAcquisition@@@Z 67db1168 f   AScanDlg.obj
 0001:00030190       __unwindfunclet$??1CAScanDlg@@UAE@XZ$0 67db1190 f   AScanDlg.obj
 0001:00030198       __unwindfunclet$??1CAScanDlg@@UAE@XZ$1 67db1198 f   AScanDlg.obj
 0001:000301ad       __unwindfunclet$??1CAScanDlg@@UAE@XZ$2 67db11ad f   AScanDlg.obj
 0001:000301b8       __ehhandler$??1CAScanDlg@@UAE@XZ 67db11b8 f   AScanDlg.obj
 0001:000301e0       __unwindfunclet$??0CAviFileDlg@@QAE@PAVCWnd@@HHHH@Z$0 67db11e0 f   AviFileDlg.obj
 0001:000301e8       __ehhandler$??0CAviFileDlg@@QAE@PAVCWnd@@HHHH@Z 67db11e8 f   AviFileDlg.obj
 0001:00030210       __unwindfunclet$??0CBayerOptionsDlg@@QAE@PAVCWnd@@PAVSapBayer@@PAVSapTransfer@@PAVCImageWnd@@PAVSapProcessing@@@Z$0 67db1210 f   BayerDlg.obj
 0001:00030218       __ehhandler$??0CBayerOptionsDlg@@QAE@PAVCWnd@@PAVSapBayer@@PAVSapTransfer@@PAVCImageWnd@@PAVSapProcessing@@@Z 67db1218 f   BayerDlg.obj
 0001:00030233       __unwindfunclet$??1CBayerOptionsDlg@@UAE@XZ$0 67db1233 f   BayerDlg.obj
 0001:0003023b       __ehhandler$??1CBayerOptionsDlg@@UAE@XZ 67db123b f   BayerDlg.obj
 0001:00030256       __unwindfunclet$?UpdateInterface@CBayerOptionsDlg@@QAEXXZ$0 67db1256 f   BayerDlg.obj
 0001:00030268       __ehhandler$?UpdateInterface@CBayerOptionsDlg@@QAEXXZ 67db1268 f   BayerDlg.obj
 0001:00030283       __unwindfunclet$?OnApply@CBayerOptionsDlg@@IAEXXZ$1 67db1283 f   BayerDlg.obj
 0001:00030295       __ehhandler$?OnApply@CBayerOptionsDlg@@IAEXXZ 67db1295 f   BayerDlg.obj
 0001:000302b0       __unwindfunclet$??0CBrowseDirDlg@@QAE@PBD@Z$0 67db12b0 f   BrowseDirDlg.obj
 0001:000302c2       __ehhandler$??0CBrowseDirDlg@@QAE@PBD@Z 67db12c2 f   BrowseDirDlg.obj
 0001:000302dd       __unwindfunclet$?DoModal@CBrowseDirDlg@@QAEHXZ$0 67db12dd f   BrowseDirDlg.obj
 0001:000302f2       __unwindfunclet$?DoModal@CBrowseDirDlg@@QAEHXZ$1 67db12f2 f   BrowseDirDlg.obj
 0001:00030307       __unwindfunclet$?DoModal@CBrowseDirDlg@@QAEHXZ$2 67db1307 f   BrowseDirDlg.obj
 0001:0003031c       __unwindfunclet$?DoModal@CBrowseDirDlg@@QAEHXZ$3 67db131c f   BrowseDirDlg.obj
 0001:00030331       __ehhandler$?DoModal@CBrowseDirDlg@@QAEHXZ 67db1331 f   BrowseDirDlg.obj
 0001:00030360       __unwindfunclet$??HATL@@YA?AV?$CStringT@DV?$StrTraitMFC_DLL@DV?$ChTraitsCRT@D@ATL@@@@@0@ABV10@0@Z$0 67db1360 f   BrowseDirDlg.obj
 0001:00030372       __ehhandler$??HATL@@YA?AV?$CStringT@DV?$StrTraitMFC_DLL@DV?$ChTraitsCRT@D@ATL@@@@@0@ABV10@0@Z 67db1372 f   BrowseDirDlg.obj
 0001:00030390       __unwindfunclet$??HATL@@YA?AV?$CStringT@DV?$StrTraitMFC_DLL@DV?$ChTraitsCRT@D@ATL@@@@@0@ABV10@D@Z$0 67db1390 f   BrowseDirDlg.obj
 0001:000303a2       __ehhandler$??HATL@@YA?AV?$CStringT@DV?$StrTraitMFC_DLL@DV?$ChTraitsCRT@D@ATL@@@@@0@ABV10@D@Z 67db13a2 f   BrowseDirDlg.obj
 0001:000303c0       __unwindfunclet$??0CBufDlg@@QAE@PAVCWnd@@PAVSapBuffer@@PAVSapDisplay@@@Z$0 67db13c0 f   BufDlg.obj
 0001:000303c8       __unwindfunclet$??0CBufDlg@@QAE@PAVCWnd@@PAVSapBuffer@@PAVSapDisplay@@@Z$1 67db13c8 f   BufDlg.obj
 0001:000303d3       __unwindfunclet$??0CBufDlg@@QAE@PAVCWnd@@PAVSapBuffer@@PAVSapDisplay@@@Z$3 67db13d3 f   BufDlg.obj
 0001:000303eb       __unwindfunclet$??0CBufDlg@@QAE@PAVCWnd@@PAVSapBuffer@@PAVSapDisplay@@@Z$4 67db13eb f   BufDlg.obj
 0001:00030403       __unwindfunclet$??0CBufDlg@@QAE@PAVCWnd@@PAVSapBuffer@@PAVSapDisplay@@@Z$6 67db1403 f   BufDlg.obj
 0001:00030418       __ehhandler$??0CBufDlg@@QAE@PAVCWnd@@PAVSapBuffer@@PAVSapDisplay@@@Z 67db1418 f   BufDlg.obj
 0001:00030440       __unwindfunclet$??1CBufDlg@@UAE@XZ$0 67db1440 f   BufDlg.obj
 0001:00030448       __unwindfunclet$??1CBufDlg@@UAE@XZ$1 67db1448 f   BufDlg.obj
 0001:00030453       __unwindfunclet$??1CBufDlg@@UAE@XZ$2 67db1453 f   BufDlg.obj
 0001:0003046b       __ehhandler$??1CBufDlg@@UAE@XZ 67db146b f   BufDlg.obj
 0001:00030490       __unwindfunclet$??0CCabDlg@@QAE@PAVCWnd@@PAVSapCab@@PAVSapXferNode@@H@Z$0 67db1490 f   CabDlg.obj
 0001:00030498       __unwindfunclet$??0CCabDlg@@QAE@PAVCWnd@@PAVSapCab@@PAVSapXferNode@@H@Z$1 67db1498 f   CabDlg.obj
 0001:000304ad       __unwindfunclet$??0CCabDlg@@QAE@PAVCWnd@@PAVSapCab@@PAVSapXferNode@@H@Z$2 67db14ad f   CabDlg.obj
 0001:000304b8       __unwindfunclet$??0CCabDlg@@QAE@PAVCWnd@@PAVSapCab@@PAVSapXferNode@@H@Z$3 67db14b8 f   CabDlg.obj
 0001:000304ca       __unwindfunclet$??0CCabDlg@@QAE@PAVCWnd@@PAVSapCab@@PAVSapXferNode@@H@Z$4 67db14ca f   CabDlg.obj
 0001:000304dc       __unwindfunclet$??0CCabDlg@@QAE@PAVCWnd@@PAVSapCab@@PAVSapXferNode@@H@Z$5 67db14dc f   CabDlg.obj
 0001:000304f0       __ehhandler$??0CCabDlg@@QAE@PAVCWnd@@PAVSapCab@@PAVSapXferNode@@H@Z 67db14f0 f   CabDlg.obj
 0001:00030518       __unwindfunclet$??1CCabDlg@@UAE@XZ$0 67db1518 f   CabDlg.obj
 0001:00030520       __unwindfunclet$??1CCabDlg@@UAE@XZ$1 67db1520 f   CabDlg.obj
 0001:00030535       __unwindfunclet$??1CCabDlg@@UAE@XZ$2 67db1535 f   CabDlg.obj
 0001:00030540       __ehhandler$??1CCabDlg@@UAE@XZ 67db1540 f   CabDlg.obj
 0001:0003055b       __unwindfunclet$?OnInitDialog@CCabDlg@@MAEHXZ$0 67db155b f   CabDlg.obj
 0001:0003056d       __ehhandler$?OnInitDialog@CCabDlg@@MAEHXZ 67db156d f   CabDlg.obj
 0001:00030588       __unwindfunclet$?OnOK@CCabDlg@@MAEXXZ$0 67db1588 f   CabDlg.obj
 0001:0003059a       __ehhandler$?OnOK@CCabDlg@@MAEXXZ 67db159a f   CabDlg.obj
 0001:000305c0       __unwindfunclet$??0CCamVicDlg@@QAE@PAVCWnd@@PAVSapAcquisition@@PBD@Z$0 67db15c0 f   CamVicDlg.obj
 0001:000305c8       __unwindfunclet$??0CCamVicDlg@@QAE@PAVCWnd@@PAVSapAcquisition@@PBD@Z$1 67db15c8 f   CamVicDlg.obj
 0001:000305dd       __unwindfunclet$??0CCamVicDlg@@QAE@PAVCWnd@@PAVSapAcquisition@@PBD@Z$2 67db15dd f   CamVicDlg.obj
 0001:000305e8       __unwindfunclet$??0CCamVicDlg@@QAE@PAVCWnd@@PAVSapAcquisition@@PBD@Z$3 67db15e8 f   CamVicDlg.obj
 0001:000305f6       __unwindfunclet$??0CCamVicDlg@@QAE@PAVCWnd@@PAVSapAcquisition@@PBD@Z$4 67db15f6 f   CamVicDlg.obj
 0001:00030604       __unwindfunclet$??0CCamVicDlg@@QAE@PAVCWnd@@PAVSapAcquisition@@PBD@Z$5 67db1604 f   CamVicDlg.obj
 0001:00030612       __unwindfunclet$??0CCamVicDlg@@QAE@PAVCWnd@@PAVSapAcquisition@@PBD@Z$6 67db1612 f   CamVicDlg.obj
 0001:00030620       __unwindfunclet$??0CCamVicDlg@@QAE@PAVCWnd@@PAVSapAcquisition@@PBD@Z$7 67db1620 f   CamVicDlg.obj
 0001:0003062e       __unwindfunclet$??0CCamVicDlg@@QAE@PAVCWnd@@PAVSapAcquisition@@PBD@Z$8 67db162e f   CamVicDlg.obj
 0001:00030646       __unwindfunclet$??0CCamVicDlg@@QAE@PAVCWnd@@PAVSapAcquisition@@PBD@Z$10 67db1646 f   CamVicDlg.obj
 0001:0003065e       __unwindfunclet$??0CCamVicDlg@@QAE@PAVCWnd@@PAVSapAcquisition@@PBD@Z$11 67db165e f   CamVicDlg.obj
 0001:00030676       __unwindfunclet$??0CCamVicDlg@@QAE@PAVCWnd@@PAVSapAcquisition@@PBD@Z$13 67db1676 f   CamVicDlg.obj
 0001:00030688       __ehhandler$??0CCamVicDlg@@QAE@PAVCWnd@@PAVSapAcquisition@@PBD@Z 67db1688 f   CamVicDlg.obj
 0001:000306b0       __unwindfunclet$?UpdateAcquisition@CCamVicDlg@@IAEHXZ$0 67db16b0 f   CamVicDlg.obj
 0001:000306c2       __ehhandler$?UpdateAcquisition@CCamVicDlg@@IAEHXZ 67db16c2 f   CamVicDlg.obj
 0001:000306e7       __unwindfunclet$?LoadSettings@CCamVicDlg@@IAEXXZ$0 67db16e7 f   CamVicDlg.obj
 0001:000306f9       __unwindfunclet$?LoadSettings@CCamVicDlg@@IAEXXZ$1 67db16f9 f   CamVicDlg.obj
 0001:0003070b       __unwindfunclet$?LoadSettings@CCamVicDlg@@IAEXXZ$2 67db170b f   CamVicDlg.obj
 0001:0003071d       __unwindfunclet$?LoadSettings@CCamVicDlg@@IAEXXZ$3 67db171d f   CamVicDlg.obj
 0001:0003072f       __ehhandler$?LoadSettings@CCamVicDlg@@IAEXXZ 67db172f f   CamVicDlg.obj
 0001:0003074a       __unwindfunclet$?SetDirectories@CCamVicDlg@@IAEXXZ$0 67db174a f   CamVicDlg.obj
 0001:0003075f       __ehhandler$?SetDirectories@CCamVicDlg@@IAEXXZ 67db175f f   CamVicDlg.obj
 0001:00030787       __unwindfunclet$?OnCamBrowse@CCamVicDlg@@IAEXXZ$0 67db1787 f   CamVicDlg.obj
 0001:0003078f       __unwindfunclet$?OnCamBrowse@CCamVicDlg@@IAEXXZ$1 67db178f f   CamVicDlg.obj
 0001:000307a1       __ehhandler$?OnCamBrowse@CCamVicDlg@@IAEXXZ 67db17a1 f   CamVicDlg.obj
 0001:000307bc       __unwindfunclet$?OnVicBrowse@CCamVicDlg@@IAEXXZ$0 67db17bc f   CamVicDlg.obj
 0001:000307c4       __unwindfunclet$?OnVicBrowse@CCamVicDlg@@IAEXXZ$1 67db17c4 f   CamVicDlg.obj
 0001:000307d6       __ehhandler$?OnVicBrowse@CCamVicDlg@@IAEXXZ 67db17d6 f   CamVicDlg.obj
 0001:000307f1       __unwindfunclet$?OnGenerateVic@CCamVicDlg@@IAEXXZ$0 67db17f1 f   CamVicDlg.obj
 0001:00030803       __unwindfunclet$?OnGenerateVic@CCamVicDlg@@IAEXXZ$1 67db1803 f   CamVicDlg.obj
 0001:00030815       __unwindfunclet$?OnGenerateVic@CCamVicDlg@@IAEXXZ$2 67db1815 f   CamVicDlg.obj
 0001:00030827       __unwindfunclet$?OnGenerateVic@CCamVicDlg@@IAEXXZ$3 67db1827 f   CamVicDlg.obj
 0001:0003083c       __unwindfunclet$?OnGenerateVic@CCamVicDlg@@IAEXXZ$4 67db183c f   CamVicDlg.obj
 0001:00030851       __unwindfunclet$?OnGenerateVic@CCamVicDlg@@IAEXXZ$5 67db1851 f   CamVicDlg.obj
 0001:00030866       __unwindfunclet$?OnGenerateVic@CCamVicDlg@@IAEXXZ$6 67db1866 f   CamVicDlg.obj
 0001:0003087b       __unwindfunclet$?OnGenerateVic@CCamVicDlg@@IAEXXZ$7 67db187b f   CamVicDlg.obj
 0001:00030890       __unwindfunclet$?OnGenerateVic@CCamVicDlg@@IAEXXZ$8 67db1890 f   CamVicDlg.obj
 0001:000308a5       __unwindfunclet$?OnGenerateVic@CCamVicDlg@@IAEXXZ$9 67db18a5 f   CamVicDlg.obj
 0001:000308ba       __unwindfunclet$?OnGenerateVic@CCamVicDlg@@IAEXXZ$10 67db18ba f   CamVicDlg.obj
 0001:000308cf       __unwindfunclet$?OnGenerateVic@CCamVicDlg@@IAEXXZ$11 67db18cf f   CamVicDlg.obj
 0001:000308e4       __unwindfunclet$?OnGenerateVic@CCamVicDlg@@IAEXXZ$12 67db18e4 f   CamVicDlg.obj
 0001:000308f9       __unwindfunclet$?OnGenerateVic@CCamVicDlg@@IAEXXZ$13 67db18f9 f   CamVicDlg.obj
 0001:0003090e       __unwindfunclet$?OnGenerateVic@CCamVicDlg@@IAEXXZ$14 67db190e f   CamVicDlg.obj
 0001:00030923       __unwindfunclet$?OnGenerateVic@CCamVicDlg@@IAEXXZ$15 67db1923 f   CamVicDlg.obj
 0001:00030938       __unwindfunclet$?OnGenerateVic@CCamVicDlg@@IAEXXZ$16 67db1938 f   CamVicDlg.obj
 0001:0003094d       __unwindfunclet$?OnGenerateVic@CCamVicDlg@@IAEXXZ$17 67db194d f   CamVicDlg.obj
 0001:0003095f       __ehhandler$?OnGenerateVic@CCamVicDlg@@IAEXXZ 67db195f f   CamVicDlg.obj
 0001:00030980       __unwindfunclet$??HATL@@YA?AV?$CStringT@DV?$StrTraitMFC_DLL@DV?$ChTraitsCRT@D@ATL@@@@@0@ABV10@PBD@Z$0 67db1980 f   CamVicDlg.obj
 0001:00030992       __ehhandler$??HATL@@YA?AV?$CStringT@DV?$StrTraitMFC_DLL@DV?$ChTraitsCRT@D@ATL@@@@@0@ABV10@PBD@Z 67db1992 f   CamVicDlg.obj
 0001:000309b0       __unwindfunclet$??1CCamVicDlg@@UAE@XZ$0 67db19b0 f   CamVicDlg.obj
 0001:000309b8       __unwindfunclet$??1CCamVicDlg@@UAE@XZ$1 67db19b8 f   CamVicDlg.obj
 0001:000309cd       __unwindfunclet$??1CCamVicDlg@@UAE@XZ$2 67db19cd f   CamVicDlg.obj
 0001:000309d8       __unwindfunclet$??1CCamVicDlg@@UAE@XZ$3 67db19d8 f   CamVicDlg.obj
 0001:000309e6       __unwindfunclet$??1CCamVicDlg@@UAE@XZ$4 67db19e6 f   CamVicDlg.obj
 0001:000309f4       __unwindfunclet$??1CCamVicDlg@@UAE@XZ$5 67db19f4 f   CamVicDlg.obj
 0001:00030a02       __unwindfunclet$??1CCamVicDlg@@UAE@XZ$6 67db1a02 f   CamVicDlg.obj
 0001:00030a10       __unwindfunclet$??1CCamVicDlg@@UAE@XZ$7 67db1a10 f   CamVicDlg.obj
 0001:00030a1e       __unwindfunclet$??1CCamVicDlg@@UAE@XZ$8 67db1a1e f   CamVicDlg.obj
 0001:00030a36       __ehhandler$??1CCamVicDlg@@UAE@XZ 67db1a36 f   CamVicDlg.obj
 0001:00030a60       __unwindfunclet$??0CCompDlg@@QAE@PAVCWnd@@PAVSapAcquisition@@PAVSapTransfer@@@Z$0 67db1a60 f   CompDlg.obj
 0001:00030a68       __unwindfunclet$??0CCompDlg@@QAE@PAVCWnd@@PAVSapAcquisition@@PAVSapTransfer@@@Z$1 67db1a68 f   CompDlg.obj
 0001:00030a7d       __unwindfunclet$??0CCompDlg@@QAE@PAVCWnd@@PAVSapAcquisition@@PAVSapTransfer@@@Z$2 67db1a7d f   CompDlg.obj
 0001:00030a88       __unwindfunclet$??0CCompDlg@@QAE@PAVCWnd@@PAVSapAcquisition@@PAVSapTransfer@@@Z$3 67db1a88 f   CompDlg.obj
 0001:00030a96       __unwindfunclet$??0CCompDlg@@QAE@PAVCWnd@@PAVSapAcquisition@@PAVSapTransfer@@@Z$4 67db1a96 f   CompDlg.obj
 0001:00030aa4       __unwindfunclet$??0CCompDlg@@QAE@PAVCWnd@@PAVSapAcquisition@@PAVSapTransfer@@@Z$5 67db1aa4 f   CompDlg.obj
 0001:00030ab2       __ehhandler$??0CCompDlg@@QAE@PAVCWnd@@PAVSapAcquisition@@PAVSapTransfer@@@Z 67db1ab2 f   CompDlg.obj
 0001:00030acd       __unwindfunclet$?Snap@CCompDlg@@IAEXXZ$0 67db1acd f   CompDlg.obj
 0001:00030ad8       __ehhandler$?Snap@CCompDlg@@IAEXXZ 67db1ad8 f   CompDlg.obj
 0001:00030b00       __unwindfunclet$??1CCompDlg@@UAE@XZ$0 67db1b00 f   CompDlg.obj
 0001:00030b08       __unwindfunclet$??1CCompDlg@@UAE@XZ$1 67db1b08 f   CompDlg.obj
 0001:00030b1d       __unwindfunclet$??1CCompDlg@@UAE@XZ$2 67db1b1d f   CompDlg.obj
 0001:00030b28       __unwindfunclet$??1CCompDlg@@UAE@XZ$3 67db1b28 f   CompDlg.obj
 0001:00030b36       __unwindfunclet$??1CCompDlg@@UAE@XZ$4 67db1b36 f   CompDlg.obj
 0001:00030b44       __unwindfunclet$??1CCompDlg@@UAE@XZ$5 67db1b44 f   CompDlg.obj
 0001:00030b52       __ehhandler$??1CCompDlg@@UAE@XZ 67db1b52 f   CompDlg.obj
 0001:00030b70       __unwindfunclet$??0CFlatFieldDlg@@QAE@PAVCWnd@@PAVSapFlatField@@PAVSapTransfer@@PAVSapBuffer@@@Z$0 67db1b70 f   FlatFieldDlg.obj
 0001:00030b78       __unwindfunclet$??0CFlatFieldDlg@@QAE@PAVCWnd@@PAVSapFlatField@@PAVSapTransfer@@PAVSapBuffer@@@Z$1 67db1b78 f   FlatFieldDlg.obj
 0001:00030b8d       __unwindfunclet$??0CFlatFieldDlg@@QAE@PAVCWnd@@PAVSapFlatField@@PAVSapTransfer@@PAVSapBuffer@@@Z$2 67db1b8d f   FlatFieldDlg.obj
 0001:00030b98       __unwindfunclet$??0CFlatFieldDlg@@QAE@PAVCWnd@@PAVSapFlatField@@PAVSapTransfer@@PAVSapBuffer@@@Z$3 67db1b98 f   FlatFieldDlg.obj
 0001:00030ba6       __unwindfunclet$??0CFlatFieldDlg@@QAE@PAVCWnd@@PAVSapFlatField@@PAVSapTransfer@@PAVSapBuffer@@@Z$4 67db1ba6 f   FlatFieldDlg.obj
 0001:00030bb4       __unwindfunclet$??0CFlatFieldDlg@@QAE@PAVCWnd@@PAVSapFlatField@@PAVSapTransfer@@PAVSapBuffer@@@Z$5 67db1bb4 f   FlatFieldDlg.obj
 0001:00030bc2       __unwindfunclet$??0CFlatFieldDlg@@QAE@PAVCWnd@@PAVSapFlatField@@PAVSapTransfer@@PAVSapBuffer@@@Z$6 67db1bc2 f   FlatFieldDlg.obj
 0001:00030bd0       __unwindfunclet$??0CFlatFieldDlg@@QAE@PAVCWnd@@PAVSapFlatField@@PAVSapTransfer@@PAVSapBuffer@@@Z$7 67db1bd0 f   FlatFieldDlg.obj
 0001:00030bde       __unwindfunclet$??0CFlatFieldDlg@@QAE@PAVCWnd@@PAVSapFlatField@@PAVSapTransfer@@PAVSapBuffer@@@Z$8 67db1bde f   FlatFieldDlg.obj
 0001:00030bf6       __ehhandler$??0CFlatFieldDlg@@QAE@PAVCWnd@@PAVSapFlatField@@PAVSapTransfer@@PAVSapBuffer@@@Z 67db1bf6 f   FlatFieldDlg.obj
 0001:00030c11       __unwindfunclet$??1CFlatFieldDlg@@UAE@XZ$0 67db1c11 f   FlatFieldDlg.obj
 0001:00030c19       __unwindfunclet$??1CFlatFieldDlg@@UAE@XZ$1 67db1c19 f   FlatFieldDlg.obj
 0001:00030c2e       __unwindfunclet$??1CFlatFieldDlg@@UAE@XZ$2 67db1c2e f   FlatFieldDlg.obj
 0001:00030c39       __unwindfunclet$??1CFlatFieldDlg@@UAE@XZ$3 67db1c39 f   FlatFieldDlg.obj
 0001:00030c47       __unwindfunclet$??1CFlatFieldDlg@@UAE@XZ$4 67db1c47 f   FlatFieldDlg.obj
 0001:00030c55       __unwindfunclet$??1CFlatFieldDlg@@UAE@XZ$5 67db1c55 f   FlatFieldDlg.obj
 0001:00030c63       __unwindfunclet$??1CFlatFieldDlg@@UAE@XZ$6 67db1c63 f   FlatFieldDlg.obj
 0001:00030c71       __unwindfunclet$??1CFlatFieldDlg@@UAE@XZ$7 67db1c71 f   FlatFieldDlg.obj
 0001:00030c7f       __unwindfunclet$??1CFlatFieldDlg@@UAE@XZ$8 67db1c7f f   FlatFieldDlg.obj
 0001:00030c97       __ehhandler$??1CFlatFieldDlg@@UAE@XZ 67db1c97 f   FlatFieldDlg.obj
 0001:00030cb2       __unwindfunclet$?OnInitDialog@CFlatFieldDlg@@MAEHXZ$0 67db1cb2 f   FlatFieldDlg.obj
 0001:00030cc4       __unwindfunclet$?OnInitDialog@CFlatFieldDlg@@MAEHXZ$1 67db1cc4 f   FlatFieldDlg.obj
 0001:00030cd6       __unwindfunclet$?OnInitDialog@CFlatFieldDlg@@MAEHXZ$3 67db1cd6 f   FlatFieldDlg.obj
 0001:00030ceb       __unwindfunclet$?OnInitDialog@CFlatFieldDlg@@MAEHXZ$4 67db1ceb f   FlatFieldDlg.obj
 0001:00030d00       __unwindfunclet$?OnInitDialog@CFlatFieldDlg@@MAEHXZ$5 67db1d00 f   FlatFieldDlg.obj
 0001:00030d15       __ehhandler$?OnInitDialog@CFlatFieldDlg@@MAEHXZ 67db1d15 f   FlatFieldDlg.obj
 0001:00030d3d       __unwindfunclet$?OnDarkImage@CFlatFieldDlg@@IAEXXZ$3 67db1d3d f   FlatFieldDlg.obj
 0001:00030d57       __unwindfunclet$?OnDarkImage@CFlatFieldDlg@@IAEXXZ$6 67db1d57 f   FlatFieldDlg.obj
 0001:00030d71       __unwindfunclet$?OnDarkImage@CFlatFieldDlg@@IAEXXZ$8 67db1d71 f   FlatFieldDlg.obj
 0001:00030d7c       __unwindfunclet$?OnDarkImage@CFlatFieldDlg@@IAEXXZ$9 67db1d7c f   FlatFieldDlg.obj
 0001:00030d91       __unwindfunclet$?OnDarkImage@CFlatFieldDlg@@IAEXXZ$11 67db1d91 f   FlatFieldDlg.obj
 0001:00030da6       __unwindfunclet$?OnDarkImage@CFlatFieldDlg@@IAEXXZ$14 67db1da6 f   FlatFieldDlg.obj
 0001:00030dbb       __unwindfunclet$?OnDarkImage@CFlatFieldDlg@@IAEXXZ$15 67db1dbb f   FlatFieldDlg.obj
 0001:00030dd0       __ehhandler$?OnDarkImage@CFlatFieldDlg@@IAEXXZ 67db1dd0 f   FlatFieldDlg.obj
 0001:00030df8       __unwindfunclet$?DarkImage@CFlatFieldDlg@@AAEXXZ$0 67db1df8 f   FlatFieldDlg.obj
 0001:00030e0a       __unwindfunclet$?DarkImage@CFlatFieldDlg@@AAEXXZ$1 67db1e0a f   FlatFieldDlg.obj
 0001:00030e1f       __unwindfunclet$?DarkImage@CFlatFieldDlg@@AAEXXZ$9 67db1e1f f   FlatFieldDlg.obj
 0001:00030e34       __unwindfunclet$?DarkImage@CFlatFieldDlg@@AAEXXZ$10 67db1e34 f   FlatFieldDlg.obj
 0001:00030e49       __unwindfunclet$?DarkImage@CFlatFieldDlg@@AAEXXZ$11 67db1e49 f   FlatFieldDlg.obj
 0001:00030e5e       __ehhandler$?DarkImage@CFlatFieldDlg@@AAEXXZ 67db1e5e f   FlatFieldDlg.obj
 0001:00030e7c       __unwindfunclet$?OnBrightImage@CFlatFieldDlg@@IAEXXZ$3 67db1e7c f   FlatFieldDlg.obj
 0001:00030e96       __unwindfunclet$?OnBrightImage@CFlatFieldDlg@@IAEXXZ$6 67db1e96 f   FlatFieldDlg.obj
 0001:00030eb0       __unwindfunclet$?OnBrightImage@CFlatFieldDlg@@IAEXXZ$8 67db1eb0 f   FlatFieldDlg.obj
 0001:00030ebb       __unwindfunclet$?OnBrightImage@CFlatFieldDlg@@IAEXXZ$9 67db1ebb f   FlatFieldDlg.obj
 0001:00030ed0       __unwindfunclet$?OnBrightImage@CFlatFieldDlg@@IAEXXZ$11 67db1ed0 f   FlatFieldDlg.obj
 0001:00030ee5       __unwindfunclet$?OnBrightImage@CFlatFieldDlg@@IAEXXZ$14 67db1ee5 f   FlatFieldDlg.obj
 0001:00030efa       __unwindfunclet$?OnBrightImage@CFlatFieldDlg@@IAEXXZ$15 67db1efa f   FlatFieldDlg.obj
 0001:00030f0f       __ehhandler$?OnBrightImage@CFlatFieldDlg@@IAEXXZ 67db1f0f f   FlatFieldDlg.obj
 0001:00030f37       __unwindfunclet$?BrightImage@CFlatFieldDlg@@AAEXXZ$0 67db1f37 f   FlatFieldDlg.obj
 0001:00030f49       __unwindfunclet$?BrightImage@CFlatFieldDlg@@AAEXXZ$1 67db1f49 f   FlatFieldDlg.obj
 0001:00030f5e       __unwindfunclet$?BrightImage@CFlatFieldDlg@@AAEXXZ$7 67db1f5e f   FlatFieldDlg.obj
 0001:00030f73       __unwindfunclet$?BrightImage@CFlatFieldDlg@@AAEXXZ$8 67db1f73 f   FlatFieldDlg.obj
 0001:00030f88       __unwindfunclet$?BrightImage@CFlatFieldDlg@@AAEXXZ$9 67db1f88 f   FlatFieldDlg.obj
 0001:00030f9d       __unwindfunclet$?BrightImage@CFlatFieldDlg@@AAEXXZ$10 67db1f9d f   FlatFieldDlg.obj
 0001:00030fb2       __unwindfunclet$?BrightImage@CFlatFieldDlg@@AAEXXZ$11 67db1fb2 f   FlatFieldDlg.obj
 0001:00030fc7       __unwindfunclet$?BrightImage@CFlatFieldDlg@@AAEXXZ$12 67db1fc7 f   FlatFieldDlg.obj
 0001:00030fdc       __unwindfunclet$?BrightImage@CFlatFieldDlg@@AAEXXZ$13 67db1fdc f   FlatFieldDlg.obj
 0001:00030ff1       __unwindfunclet$?BrightImage@CFlatFieldDlg@@AAEXXZ$16 67db1ff1 f   FlatFieldDlg.obj
 0001:00031006       __unwindfunclet$?BrightImage@CFlatFieldDlg@@AAEXXZ$18 67db2006 f   FlatFieldDlg.obj
 0001:0003101b       __unwindfunclet$?BrightImage@CFlatFieldDlg@@AAEXXZ$20 67db201b f   FlatFieldDlg.obj
 0001:00031030       __unwindfunclet$?BrightImage@CFlatFieldDlg@@AAEXXZ$22 67db2030 f   FlatFieldDlg.obj
 0001:00031045       __unwindfunclet$?BrightImage@CFlatFieldDlg@@AAEXXZ$23 67db2045 f   FlatFieldDlg.obj
 0001:0003105a       __unwindfunclet$?BrightImage@CFlatFieldDlg@@AAEXXZ$25 67db205a f   FlatFieldDlg.obj
 0001:0003106f       __ehhandler$?BrightImage@CFlatFieldDlg@@AAEXXZ 67db206f f   FlatFieldDlg.obj
 0001:0003108d       __unwindfunclet$?Snap@CFlatFieldDlg@@QAEHXZ$0 67db208d f   FlatFieldDlg.obj
 0001:00031098       __ehhandler$?Snap@CFlatFieldDlg@@QAEHXZ 67db2098 f   FlatFieldDlg.obj
 0001:000310b6       __unwindfunclet$?LogMessage@CFlatFieldDlg@@AAEXHV?$CStringT@DV?$StrTraitMFC_DLL@DV?$ChTraitsCRT@D@ATL@@@@@ATL@@@Z$0 67db20b6 f   FlatFieldDlg.obj
 0001:000310c8       __unwindfunclet$?LogMessage@CFlatFieldDlg@@AAEXHV?$CStringT@DV?$StrTraitMFC_DLL@DV?$ChTraitsCRT@D@ATL@@@@@ATL@@@Z$1 67db20c8 f   FlatFieldDlg.obj
 0001:000310da       __ehhandler$?LogMessage@CFlatFieldDlg@@AAEXHV?$CStringT@DV?$StrTraitMFC_DLL@DV?$ChTraitsCRT@D@ATL@@@@@ATL@@@Z 67db20da f   FlatFieldDlg.obj
 0001:000310f5       __unwindfunclet$?GetAverageStr@CFlatFieldDlg@@ABE?AV?$CStringT@DV?$StrTraitMFC_DLL@DV?$ChTraitsCRT@D@ATL@@@@@ATL@@AAVSapFlatFieldStats@@@Z$0 67db20f5 f   FlatFieldDlg.obj
 0001:00031107       __unwindfunclet$?GetAverageStr@CFlatFieldDlg@@ABE?AV?$CStringT@DV?$StrTraitMFC_DLL@DV?$ChTraitsCRT@D@ATL@@@@@ATL@@AAVSapFlatFieldStats@@@Z$1 67db2107 f   FlatFieldDlg.obj
 0001:00031119       __ehhandler$?GetAverageStr@CFlatFieldDlg@@ABE?AV?$CStringT@DV?$StrTraitMFC_DLL@DV?$ChTraitsCRT@D@ATL@@@@@ATL@@AAVSapFlatFieldStats@@@Z 67db2119 f   FlatFieldDlg.obj
 0001:00031134       __unwindfunclet$?GetStdDeviationStr@CFlatFieldDlg@@ABE?AV?$CStringT@DV?$StrTraitMFC_DLL@DV?$ChTraitsCRT@D@ATL@@@@@ATL@@AAVSapFlatFieldStats@@@Z$0 67db2134 f   FlatFieldDlg.obj
 0001:00031146       __unwindfunclet$?GetStdDeviationStr@CFlatFieldDlg@@ABE?AV?$CStringT@DV?$StrTraitMFC_DLL@DV?$ChTraitsCRT@D@ATL@@@@@ATL@@AAVSapFlatFieldStats@@@Z$1 67db2146 f   FlatFieldDlg.obj
 0001:00031158       __ehhandler$?GetStdDeviationStr@CFlatFieldDlg@@ABE?AV?$CStringT@DV?$StrTraitMFC_DLL@DV?$ChTraitsCRT@D@ATL@@@@@ATL@@AAVSapFlatFieldStats@@@Z 67db2158 f   FlatFieldDlg.obj
 0001:00031173       __unwindfunclet$?GetLowStr@CFlatFieldDlg@@ABE?AV?$CStringT@DV?$StrTraitMFC_DLL@DV?$ChTraitsCRT@D@ATL@@@@@ATL@@AAVSapFlatFieldStats@@@Z$0 67db2173 f   FlatFieldDlg.obj
 0001:00031185       __unwindfunclet$?GetLowStr@CFlatFieldDlg@@ABE?AV?$CStringT@DV?$StrTraitMFC_DLL@DV?$ChTraitsCRT@D@ATL@@@@@ATL@@AAVSapFlatFieldStats@@@Z$1 67db2185 f   FlatFieldDlg.obj
 0001:00031197       __ehhandler$?GetLowStr@CFlatFieldDlg@@ABE?AV?$CStringT@DV?$StrTraitMFC_DLL@DV?$ChTraitsCRT@D@ATL@@@@@ATL@@AAVSapFlatFieldStats@@@Z 67db2197 f   FlatFieldDlg.obj
 0001:000311b2       __unwindfunclet$?GetHighStr@CFlatFieldDlg@@ABE?AV?$CStringT@DV?$StrTraitMFC_DLL@DV?$ChTraitsCRT@D@ATL@@@@@ATL@@AAVSapFlatFieldStats@@@Z$0 67db21b2 f   FlatFieldDlg.obj
 0001:000311c4       __unwindfunclet$?GetHighStr@CFlatFieldDlg@@ABE?AV?$CStringT@DV?$StrTraitMFC_DLL@DV?$ChTraitsCRT@D@ATL@@@@@ATL@@AAVSapFlatFieldStats@@@Z$1 67db21c4 f   FlatFieldDlg.obj
 0001:000311d6       __ehhandler$?GetHighStr@CFlatFieldDlg@@ABE?AV?$CStringT@DV?$StrTraitMFC_DLL@DV?$ChTraitsCRT@D@ATL@@@@@ATL@@AAVSapFlatFieldStats@@@Z 67db21d6 f   FlatFieldDlg.obj
 0001:000311f1       __unwindfunclet$?GetPeakPositionStr@CFlatFieldDlg@@ABE?AV?$CStringT@DV?$StrTraitMFC_DLL@DV?$ChTraitsCRT@D@ATL@@@@@ATL@@AAVSapFlatFieldStats@@@Z$0 67db21f1 f   FlatFieldDlg.obj
 0001:00031203       __unwindfunclet$?GetPeakPositionStr@CFlatFieldDlg@@ABE?AV?$CStringT@DV?$StrTraitMFC_DLL@DV?$ChTraitsCRT@D@ATL@@@@@ATL@@AAVSapFlatFieldStats@@@Z$1 67db2203 f   FlatFieldDlg.obj
 0001:00031215       __ehhandler$?GetPeakPositionStr@CFlatFieldDlg@@ABE?AV?$CStringT@DV?$StrTraitMFC_DLL@DV?$ChTraitsCRT@D@ATL@@@@@ATL@@AAVSapFlatFieldStats@@@Z 67db2215 f   FlatFieldDlg.obj
 0001:00031230       __unwindfunclet$?GetPixelRatioStr@CFlatFieldDlg@@ABE?AV?$CStringT@DV?$StrTraitMFC_DLL@DV?$ChTraitsCRT@D@ATL@@@@@ATL@@AAVSapFlatFieldStats@@@Z$0 67db2230 f   FlatFieldDlg.obj
 0001:00031242       __unwindfunclet$?GetPixelRatioStr@CFlatFieldDlg@@ABE?AV?$CStringT@DV?$StrTraitMFC_DLL@DV?$ChTraitsCRT@D@ATL@@@@@ATL@@AAVSapFlatFieldStats@@@Z$1 67db2242 f   FlatFieldDlg.obj
 0001:00031254       __ehhandler$?GetPixelRatioStr@CFlatFieldDlg@@ABE?AV?$CStringT@DV?$StrTraitMFC_DLL@DV?$ChTraitsCRT@D@ATL@@@@@ATL@@AAVSapFlatFieldStats@@@Z 67db2254 f   FlatFieldDlg.obj
 0001:0003126f       __unwindfunclet$?GetNumPixelsStr@CFlatFieldDlg@@ABE?AV?$CStringT@DV?$StrTraitMFC_DLL@DV?$ChTraitsCRT@D@ATL@@@@@ATL@@AAVSapFlatFieldStats@@@Z$0 67db226f f   FlatFieldDlg.obj
 0001:00031281       __unwindfunclet$?GetNumPixelsStr@CFlatFieldDlg@@ABE?AV?$CStringT@DV?$StrTraitMFC_DLL@DV?$ChTraitsCRT@D@ATL@@@@@ATL@@AAVSapFlatFieldStats@@@Z$1 67db2281 f   FlatFieldDlg.obj
 0001:00031293       __ehhandler$?GetNumPixelsStr@CFlatFieldDlg@@ABE?AV?$CStringT@DV?$StrTraitMFC_DLL@DV?$ChTraitsCRT@D@ATL@@@@@ATL@@AAVSapFlatFieldStats@@@Z 67db2293 f   FlatFieldDlg.obj
 0001:000312ae       __unwindfunclet$?OnSaveAndUpload@CFlatFieldDlg@@IAEXXZ$0 67db22ae f   FlatFieldDlg.obj
 0001:000312b9       __unwindfunclet$?OnSaveAndUpload@CFlatFieldDlg@@IAEXXZ$1 67db22b9 f   FlatFieldDlg.obj
 0001:000312ce       __unwindfunclet$?OnSaveAndUpload@CFlatFieldDlg@@IAEXXZ$3 67db22ce f   FlatFieldDlg.obj
 0001:000312d9       __unwindfunclet$?OnSaveAndUpload@CFlatFieldDlg@@IAEXXZ$5 67db22d9 f   FlatFieldDlg.obj
 0001:000312ee       __ehhandler$?OnSaveAndUpload@CFlatFieldDlg@@IAEXXZ 67db22ee f   FlatFieldDlg.obj
 0001:00031320       __unwindfunclet$??0CGioBidirectionalDlg@@QAE@PAVCWnd@@IPAVSapGio@@@Z$0 67db2320 f   GioBidirectionalDlg.obj
 0001:00031328       __unwindfunclet$??0CGioBidirectionalDlg@@QAE@PAVCWnd@@IPAVSapGio@@@Z$1 67db2328 f   GioBidirectionalDlg.obj
 0001:00031333       __unwindfunclet$??0CGioBidirectionalDlg@@QAE@PAVCWnd@@IPAVSapGio@@@Z$2 67db2333 f   GioBidirectionalDlg.obj
 0001:00031341       __unwindfunclet$??0CGioBidirectionalDlg@@QAE@PAVCWnd@@IPAVSapGio@@@Z$3 67db2341 f   GioBidirectionalDlg.obj
 0001:0003134f       __ehhandler$??0CGioBidirectionalDlg@@QAE@PAVCWnd@@IPAVSapGio@@@Z 67db234f f   GioBidirectionalDlg.obj
 0001:0003136a       __unwindfunclet$?GioCallbackInfo@CGioBidirectionalDlg@@SAXPAVSapGioCallbackInfo@@@Z$0 67db236a f   GioBidirectionalDlg.obj
 0001:0003137c       __ehhandler$?GioCallbackInfo@CGioBidirectionalDlg@@SAXPAVSapGioCallbackInfo@@@Z 67db237c f   GioBidirectionalDlg.obj
 0001:00031397       __unwindfunclet$?Update@CGioBidirectionalDlg@@QAEHXZ$0 67db2397 f   GioBidirectionalDlg.obj
 0001:000313a9       __ehhandler$?Update@CGioBidirectionalDlg@@QAEHXZ 67db23a9 f   GioBidirectionalDlg.obj
 0001:000313c4       __unwindfunclet$?ResetInterruptCount@CGioBidirectionalDlg@@IAEHXZ$0 67db23c4 f   GioBidirectionalDlg.obj
 0001:000313d6       __ehhandler$?ResetInterruptCount@CGioBidirectionalDlg@@IAEHXZ 67db23d6 f   GioBidirectionalDlg.obj
 0001:000313f1       __unwindfunclet$?ChangePinState@CGioBidirectionalDlg@@IAEXH@Z$0 67db23f1 f   GioBidirectionalDlg.obj
 0001:00031403       __ehhandler$?ChangePinState@CGioBidirectionalDlg@@IAEXH@Z 67db2403 f   GioBidirectionalDlg.obj
 0001:00031420       __unwindfunclet$??1CGioBidirectionalDlg@@UAE@XZ$0 67db2420 f   GioBidirectionalDlg.obj
 0001:00031428       __unwindfunclet$??1CGioBidirectionalDlg@@UAE@XZ$1 67db2428 f   GioBidirectionalDlg.obj
 0001:00031433       __unwindfunclet$??1CGioBidirectionalDlg@@UAE@XZ$2 67db2433 f   GioBidirectionalDlg.obj
 0001:00031441       __unwindfunclet$??1CGioBidirectionalDlg@@UAE@XZ$3 67db2441 f   GioBidirectionalDlg.obj
 0001:0003144f       __ehhandler$??1CGioBidirectionalDlg@@UAE@XZ 67db244f f   GioBidirectionalDlg.obj
 0001:00031470       __unwindfunclet$??0CGioInputDlg@@QAE@PAVCWnd@@IPAVSapGio@@@Z$0 67db2470 f   GioInputDlg.obj
 0001:00031478       __unwindfunclet$??0CGioInputDlg@@QAE@PAVCWnd@@IPAVSapGio@@@Z$1 67db2478 f   GioInputDlg.obj
 0001:00031483       __unwindfunclet$??0CGioInputDlg@@QAE@PAVCWnd@@IPAVSapGio@@@Z$2 67db2483 f   GioInputDlg.obj
 0001:00031491       __unwindfunclet$??0CGioInputDlg@@QAE@PAVCWnd@@IPAVSapGio@@@Z$3 67db2491 f   GioInputDlg.obj
 0001:0003149f       __ehhandler$??0CGioInputDlg@@QAE@PAVCWnd@@IPAVSapGio@@@Z 67db249f f   GioInputDlg.obj
 0001:000314ba       __unwindfunclet$?GioCallbackInfo@CGioInputDlg@@SAXPAVSapGioCallbackInfo@@@Z$0 67db24ba f   GioInputDlg.obj
 0001:000314cc       __ehhandler$?GioCallbackInfo@CGioInputDlg@@SAXPAVSapGioCallbackInfo@@@Z 67db24cc f   GioInputDlg.obj
 0001:000314e7       __unwindfunclet$?Update@CGioInputDlg@@QAEHXZ$0 67db24e7 f   GioInputDlg.obj
 0001:000314f9       __ehhandler$?Update@CGioInputDlg@@QAEHXZ 67db24f9 f   GioInputDlg.obj
 0001:00031514       __unwindfunclet$?ResetInterruptCount@CGioInputDlg@@IAEHXZ$0 67db2514 f   GioInputDlg.obj
 0001:00031526       __ehhandler$?ResetInterruptCount@CGioInputDlg@@IAEHXZ 67db2526 f   GioInputDlg.obj
 0001:00031550       __unwindfunclet$??1CGioInputDlg@@UAE@XZ$0 67db2550 f   GioInputDlg.obj
 0001:00031558       __unwindfunclet$??1CGioInputDlg@@UAE@XZ$1 67db2558 f   GioInputDlg.obj
 0001:00031563       __unwindfunclet$??1CGioInputDlg@@UAE@XZ$2 67db2563 f   GioInputDlg.obj
 0001:00031571       __unwindfunclet$??1CGioInputDlg@@UAE@XZ$3 67db2571 f   GioInputDlg.obj
 0001:0003157f       __ehhandler$??1CGioInputDlg@@UAE@XZ 67db257f f   GioInputDlg.obj
 0001:000315a0       __unwindfunclet$??0CGioOutputDlg@@QAE@PAVCWnd@@IPAVSapGio@@@Z$0 67db25a0 f   GioOutputDlg.obj
 0001:000315a8       __unwindfunclet$??0CGioOutputDlg@@QAE@PAVCWnd@@IPAVSapGio@@@Z$1 67db25a8 f   GioOutputDlg.obj
 0001:000315b3       __unwindfunclet$??0CGioOutputDlg@@QAE@PAVCWnd@@IPAVSapGio@@@Z$2 67db25b3 f   GioOutputDlg.obj
 0001:000315c1       __unwindfunclet$??0CGioOutputDlg@@QAE@PAVCWnd@@IPAVSapGio@@@Z$3 67db25c1 f   GioOutputDlg.obj
 0001:000315cf       __unwindfunclet$??0CGioOutputDlg@@QAE@PAVCWnd@@IPAVSapGio@@@Z$4 67db25cf f   GioOutputDlg.obj
 0001:000315dd       __unwindfunclet$??0CGioOutputDlg@@QAE@PAVCWnd@@IPAVSapGio@@@Z$5 67db25dd f   GioOutputDlg.obj
 0001:000315eb       __ehhandler$??0CGioOutputDlg@@QAE@PAVCWnd@@IPAVSapGio@@@Z 67db25eb f   GioOutputDlg.obj
 0001:00031606       __unwindfunclet$?UpdateIO@CGioOutputDlg@@IAEXXZ$0 67db2606 f   GioOutputDlg.obj
 0001:00031618       __ehhandler$?UpdateIO@CGioOutputDlg@@IAEXXZ 67db2618 f   GioOutputDlg.obj
 0001:00031633       __unwindfunclet$?ChangePinState@CGioOutputDlg@@QAEXPAVCButton@@@Z$0 67db2633 f   GioOutputDlg.obj
 0001:00031645       __ehhandler$?ChangePinState@CGioOutputDlg@@QAEXPAVCButton@@@Z 67db2645 f   GioOutputDlg.obj
 0001:00031660       __unwindfunclet$??1CGioOutputDlg@@UAE@XZ$0 67db2660 f   GioOutputDlg.obj
 0001:00031668       __unwindfunclet$??1CGioOutputDlg@@UAE@XZ$1 67db2668 f   GioOutputDlg.obj
 0001:00031673       __unwindfunclet$??1CGioOutputDlg@@UAE@XZ$2 67db2673 f   GioOutputDlg.obj
 0001:00031681       __unwindfunclet$??1CGioOutputDlg@@UAE@XZ$3 67db2681 f   GioOutputDlg.obj
 0001:0003168f       __unwindfunclet$??1CGioOutputDlg@@UAE@XZ$4 67db268f f   GioOutputDlg.obj
 0001:0003169d       __unwindfunclet$??1CGioOutputDlg@@UAE@XZ$5 67db269d f   GioOutputDlg.obj
 0001:000316ab       __ehhandler$??1CGioOutputDlg@@UAE@XZ 67db26ab f   GioOutputDlg.obj
 0001:000316d0       __unwindfunclet$??0CImageWnd@@QAE@PAVSapView@@PAVCWnd@@PAVCScrollBar@@21@Z$0 67db26d0 f   ImageWnd.obj
 0001:000316db       __ehhandler$??0CImageWnd@@QAE@PAVSapView@@PAVCWnd@@PAVCScrollBar@@21@Z 67db26db f   ImageWnd.obj
 0001:000316f6       __unwindfunclet$??0CImageWnd@@QAE@PAVSapView@@PAVCWnd@@@Z$0 67db26f6 f   ImageWnd.obj
 0001:00031701       __ehhandler$??0CImageWnd@@QAE@PAVSapView@@PAVCWnd@@@Z 67db2701 f   ImageWnd.obj
 0001:0003171c       __unwindfunclet$?DisplayRoiTracker@CImageWnd@@QAEXXZ$0 67db271c f   ImageWnd.obj
 0001:00031724       __unwindfunclet$?DisplayRoiTracker@CImageWnd@@QAEXXZ$1 67db2724 f   ImageWnd.obj
 0001:0003172c       __ehhandler$?DisplayRoiTracker@CImageWnd@@QAEXXZ 67db272c f   ImageWnd.obj
 0001:00031747       __unwindfunclet$?GetPixelString@CImageWnd@@QAE?AV?$CStringT@DV?$StrTraitMFC_DLL@DV?$ChTraitsCRT@D@ATL@@@@@ATL@@VCPoint@@@Z$0 67db2747 f   ImageWnd.obj
 0001:00031759       __unwindfunclet$?GetPixelString@CImageWnd@@QAE?AV?$CStringT@DV?$StrTraitMFC_DLL@DV?$ChTraitsCRT@D@ATL@@@@@ATL@@VCPoint@@@Z$2 67db2759 f   ImageWnd.obj
 0001:0003176b       __unwindfunclet$?GetPixelString@CImageWnd@@QAE?AV?$CStringT@DV?$StrTraitMFC_DLL@DV?$ChTraitsCRT@D@ATL@@@@@ATL@@VCPoint@@@Z$3 67db276b f   ImageWnd.obj
 0001:0003177d       __unwindfunclet$?GetPixelString@CImageWnd@@QAE?AV?$CStringT@DV?$StrTraitMFC_DLL@DV?$ChTraitsCRT@D@ATL@@@@@ATL@@VCPoint@@@Z$4 67db277d f   ImageWnd.obj
 0001:0003178f       __unwindfunclet$?GetPixelString@CImageWnd@@QAE?AV?$CStringT@DV?$StrTraitMFC_DLL@DV?$ChTraitsCRT@D@ATL@@@@@ATL@@VCPoint@@@Z$5 67db278f f   ImageWnd.obj
 0001:000317a4       __unwindfunclet$?GetPixelString@CImageWnd@@QAE?AV?$CStringT@DV?$StrTraitMFC_DLL@DV?$ChTraitsCRT@D@ATL@@@@@ATL@@VCPoint@@@Z$6 67db27a4 f   ImageWnd.obj
 0001:000317b9       __unwindfunclet$?GetPixelString@CImageWnd@@QAE?AV?$CStringT@DV?$StrTraitMFC_DLL@DV?$ChTraitsCRT@D@ATL@@@@@ATL@@VCPoint@@@Z$7 67db27b9 f   ImageWnd.obj
 0001:000317ce       __unwindfunclet$?GetPixelString@CImageWnd@@QAE?AV?$CStringT@DV?$StrTraitMFC_DLL@DV?$ChTraitsCRT@D@ATL@@@@@ATL@@VCPoint@@@Z$8 67db27ce f   ImageWnd.obj
 0001:000317e3       __unwindfunclet$?GetPixelString@CImageWnd@@QAE?AV?$CStringT@DV?$StrTraitMFC_DLL@DV?$ChTraitsCRT@D@ATL@@@@@ATL@@VCPoint@@@Z$9 67db27e3 f   ImageWnd.obj
 0001:000317f8       __unwindfunclet$?GetPixelString@CImageWnd@@QAE?AV?$CStringT@DV?$StrTraitMFC_DLL@DV?$ChTraitsCRT@D@ATL@@@@@ATL@@VCPoint@@@Z$10 67db27f8 f   ImageWnd.obj
 0001:0003180d       __unwindfunclet$?GetPixelString@CImageWnd@@QAE?AV?$CStringT@DV?$StrTraitMFC_DLL@DV?$ChTraitsCRT@D@ATL@@@@@ATL@@VCPoint@@@Z$11 67db280d f   ImageWnd.obj
 0001:00031822       __unwindfunclet$?GetPixelString@CImageWnd@@QAE?AV?$CStringT@DV?$StrTraitMFC_DLL@DV?$ChTraitsCRT@D@ATL@@@@@ATL@@VCPoint@@@Z$12 67db2822 f   ImageWnd.obj
 0001:00031837       __unwindfunclet$?GetPixelString@CImageWnd@@QAE?AV?$CStringT@DV?$StrTraitMFC_DLL@DV?$ChTraitsCRT@D@ATL@@@@@ATL@@VCPoint@@@Z$13 67db2837 f   ImageWnd.obj
 0001:0003184c       __unwindfunclet$?GetPixelString@CImageWnd@@QAE?AV?$CStringT@DV?$StrTraitMFC_DLL@DV?$ChTraitsCRT@D@ATL@@@@@ATL@@VCPoint@@@Z$14 67db284c f   ImageWnd.obj
 0001:00031861       __ehhandler$?GetPixelString@CImageWnd@@QAE?AV?$CStringT@DV?$StrTraitMFC_DLL@DV?$ChTraitsCRT@D@ATL@@@@@ATL@@VCPoint@@@Z 67db2861 f   ImageWnd.obj
 0001:00031890       __unwindfunclet$??HATL@@YA?AV?$CStringT@DV?$StrTraitMFC_DLL@DV?$ChTraitsCRT@D@ATL@@@@@0@PBDABV10@@Z$0 67db2890 f   ImageWnd.obj
 0001:000318a2       __ehhandler$??HATL@@YA?AV?$CStringT@DV?$StrTraitMFC_DLL@DV?$ChTraitsCRT@D@ATL@@@@@0@PBDABV10@@Z 67db28a2 f   ImageWnd.obj
 0001:000318c0       __unwindfunclet$??0CJpegFileDlg@@QAE@PAVCWnd@@H@Z$0 67db28c0 f   JpegFileDlg.obj
 0001:000318c8       __ehhandler$??0CJpegFileDlg@@QAE@PAVCWnd@@H@Z 67db28c8 f   JpegFileDlg.obj
 0001:000318f0       __unwindfunclet$??0CLoadSaveDlg@@QAE@PAVCWnd@@PAVSapBuffer@@HH@Z$0 67db28f0 f   LoadSaveDlg.obj
 0001:000318f8       __unwindfunclet$??0CLoadSaveDlg@@QAE@PAVCWnd@@PAVSapBuffer@@HH@Z$1 67db28f8 f   LoadSaveDlg.obj
 0001:00031910       __ehhandler$??0CLoadSaveDlg@@QAE@PAVCWnd@@PAVSapBuffer@@HH@Z 67db2910 f   LoadSaveDlg.obj
 0001:0003192b       __unwindfunclet$?UpdateBuffer@CLoadSaveDlg@@IAEHXZ$0 67db292b f   LoadSaveDlg.obj
 0001:00031933       __unwindfunclet$?UpdateBuffer@CLoadSaveDlg@@IAEHXZ$1 67db2933 f   LoadSaveDlg.obj
 0001:00031945       __ehhandler$?UpdateBuffer@CLoadSaveDlg@@IAEHXZ 67db2945 f   LoadSaveDlg.obj
 0001:00031960       __unwindfunclet$?LoadSettings@CLoadSaveDlg@@IAEXXZ$0 67db2960 f   LoadSaveDlg.obj
 0001:00031972       __ehhandler$?LoadSettings@CLoadSaveDlg@@IAEXXZ 67db2972 f   LoadSaveDlg.obj
 0001:0003198d       __unwindfunclet$?AddTiffOptions@CLoadSaveDlg@@IAEHXZ$0 67db298d f   LoadSaveDlg.obj
 0001:00031998       __unwindfunclet$?AddTiffOptions@CLoadSaveDlg@@IAEHXZ$1 67db2998 f   LoadSaveDlg.obj
 0001:000319ad       __unwindfunclet$?AddTiffOptions@CLoadSaveDlg@@IAEHXZ$2 67db29ad f   LoadSaveDlg.obj
 0001:000319c2       __ehhandler$?AddTiffOptions@CLoadSaveDlg@@IAEHXZ 67db29c2 f   LoadSaveDlg.obj
 0001:000319e0       __unwindfunclet$?AddRawOptions@CLoadSaveDlg@@IAEHXZ$0 67db29e0 f   LoadSaveDlg.obj
 0001:000319eb       __unwindfunclet$?AddRawOptions@CLoadSaveDlg@@IAEHXZ$1 67db29eb f   LoadSaveDlg.obj
 0001:00031a00       __ehhandler$?AddRawOptions@CLoadSaveDlg@@IAEHXZ 67db2a00 f   LoadSaveDlg.obj
 0001:00031a1e       __unwindfunclet$?AddJpegOptions@CLoadSaveDlg@@IAEHXZ$0 67db2a1e f   LoadSaveDlg.obj
 0001:00031a29       __unwindfunclet$?AddJpegOptions@CLoadSaveDlg@@IAEHXZ$1 67db2a29 f   LoadSaveDlg.obj
 0001:00031a3e       __ehhandler$?AddJpegOptions@CLoadSaveDlg@@IAEHXZ 67db2a3e f   LoadSaveDlg.obj
 0001:00031a5c       __unwindfunclet$?AddAviOptions@CLoadSaveDlg@@IAEHXZ$0 67db2a5c f   LoadSaveDlg.obj
 0001:00031a67       __ehhandler$?AddAviOptions@CLoadSaveDlg@@IAEHXZ 67db2a67 f   LoadSaveDlg.obj
 0001:00031a85       __unwindfunclet$?OnTypeChange@CLoadSaveDlg@@MAEXXZ$0 67db2a85 f   LoadSaveDlg.obj
 0001:00031a97       __ehhandler$?OnTypeChange@CLoadSaveDlg@@MAEXXZ 67db2a97 f   LoadSaveDlg.obj
 0001:00031ac0       __unwindfunclet$??1CRawFileDlg@@UAE@XZ$0 67db2ac0 f   LoadSaveDlg.obj
 0001:00031ac8       __ehhandler$??1CRawFileDlg@@UAE@XZ 67db2ac8 f   LoadSaveDlg.obj
 0001:00031af0       __unwindfunclet$??__E?m_TiffCompressionTypes@CLoadSaveDlg@@1PAV?$CStringT@DV?$StrTraitMFC_DLL@DV?$ChTraitsCRT@D@ATL@@@@@ATL@@A@@YAXXZ$0 67db2af0 f   LoadSaveDlg.obj
 0001:00031b04       __unwindfunclet$??__E?m_TiffCompressionTypes@CLoadSaveDlg@@1PAV?$CStringT@DV?$StrTraitMFC_DLL@DV?$ChTraitsCRT@D@ATL@@@@@ATL@@A@@YAXXZ$1 67db2b04 f   LoadSaveDlg.obj
 0001:00031b18       __unwindfunclet$??__E?m_TiffCompressionTypes@CLoadSaveDlg@@1PAV?$CStringT@DV?$StrTraitMFC_DLL@DV?$ChTraitsCRT@D@ATL@@@@@ATL@@A@@YAXXZ$2 67db2b18 f   LoadSaveDlg.obj
 0001:00031b2c       __ehhandler$??__E?m_TiffCompressionTypes@CLoadSaveDlg@@1PAV?$CStringT@DV?$StrTraitMFC_DLL@DV?$ChTraitsCRT@D@ATL@@@@@ATL@@A@@YAXXZ 67db2b2c f   LoadSaveDlg.obj
 0001:00031b50       __unwindfunclet$??0CLScanDlg@@QAE@PAVCWnd@@PAVSapAcquisition@@@Z$0 67db2b50 f   LScanDlg.obj
 0001:00031b58       __unwindfunclet$??0CLScanDlg@@QAE@PAVCWnd@@PAVSapAcquisition@@@Z$1 67db2b58 f   LScanDlg.obj
 0001:00031b6d       __unwindfunclet$??0CLScanDlg@@QAE@PAVCWnd@@PAVSapAcquisition@@@Z$2 67db2b6d f   LScanDlg.obj
 0001:00031b78       __ehhandler$??0CLScanDlg@@QAE@PAVCWnd@@PAVSapAcquisition@@@Z 67db2b78 f   LScanDlg.obj
 0001:00031ba0       __unwindfunclet$??1CLScanDlg@@UAE@XZ$0 67db2ba0 f   LScanDlg.obj
 0001:00031ba8       __unwindfunclet$??1CLScanDlg@@UAE@XZ$1 67db2ba8 f   LScanDlg.obj
 0001:00031bbd       __unwindfunclet$??1CLScanDlg@@UAE@XZ$2 67db2bbd f   LScanDlg.obj
 0001:00031bc8       __ehhandler$??1CLScanDlg@@UAE@XZ 67db2bc8 f   LScanDlg.obj
 0001:00031bf0       __unwindfunclet$??0CPixProDlg@@QAE@PAVCWnd@@PAVSapPixPro@@PAVSapXferNode@@@Z$0 67db2bf0 f   PixProDlg.obj
 0001:00031bf8       __unwindfunclet$??0CPixProDlg@@QAE@PAVCWnd@@PAVSapPixPro@@PAVSapXferNode@@@Z$1 67db2bf8 f   PixProDlg.obj
 0001:00031c03       __unwindfunclet$??0CPixProDlg@@QAE@PAVCWnd@@PAVSapPixPro@@PAVSapXferNode@@@Z$2 67db2c03 f   PixProDlg.obj
 0001:00031c11       __unwindfunclet$??0CPixProDlg@@QAE@PAVCWnd@@PAVSapPixPro@@PAVSapXferNode@@@Z$3 67db2c11 f   PixProDlg.obj
 0001:00031c1f       __unwindfunclet$??0CPixProDlg@@QAE@PAVCWnd@@PAVSapPixPro@@PAVSapXferNode@@@Z$4 67db2c1f f   PixProDlg.obj
 0001:00031c2d       __unwindfunclet$??0CPixProDlg@@QAE@PAVCWnd@@PAVSapPixPro@@PAVSapXferNode@@@Z$6 67db2c2d f   PixProDlg.obj
 0001:00031c45       __unwindfunclet$??0CPixProDlg@@QAE@PAVCWnd@@PAVSapPixPro@@PAVSapXferNode@@@Z$7 67db2c45 f   PixProDlg.obj
 0001:00031c57       __unwindfunclet$??0CPixProDlg@@QAE@PAVCWnd@@PAVSapPixPro@@PAVSapXferNode@@@Z$8 67db2c57 f   PixProDlg.obj
 0001:00031c69       __unwindfunclet$??0CPixProDlg@@QAE@PAVCWnd@@PAVSapPixPro@@PAVSapXferNode@@@Z$10 67db2c69 f   PixProDlg.obj
 0001:00031c7e       __ehhandler$??0CPixProDlg@@QAE@PAVCWnd@@PAVSapPixPro@@PAVSapXferNode@@@Z 67db2c7e f   PixProDlg.obj
 0001:00031ca6       __unwindfunclet$?LoadSettings@CPixProDlg@@IAEXXZ$0 67db2ca6 f   PixProDlg.obj
 0001:00031cb8       __unwindfunclet$?LoadSettings@CPixProDlg@@IAEXXZ$1 67db2cb8 f   PixProDlg.obj
 0001:00031cca       __ehhandler$?LoadSettings@CPixProDlg@@IAEXXZ 67db2cca f   PixProDlg.obj
 0001:00031ce5       __unwindfunclet$?SetDirectories@CPixProDlg@@IAEXXZ$0 67db2ce5 f   PixProDlg.obj
 0001:00031cf7       __ehhandler$?SetDirectories@CPixProDlg@@IAEXXZ 67db2cf7 f   PixProDlg.obj
 0001:00031d1f       __unwindfunclet$?OnBrowse@CPixProDlg@@IAEXXZ$0 67db2d1f f   PixProDlg.obj
 0001:00031d27       __unwindfunclet$?OnBrowse@CPixProDlg@@IAEXXZ$1 67db2d27 f   PixProDlg.obj
 0001:00031d39       __ehhandler$?OnBrowse@CPixProDlg@@IAEXXZ 67db2d39 f   PixProDlg.obj
 0001:00031d54       __unwindfunclet$?OnOK@CPixProDlg@@MAEXXZ$0 67db2d54 f   PixProDlg.obj
 0001:00031d69       __unwindfunclet$?OnOK@CPixProDlg@@MAEXXZ$1 67db2d69 f   PixProDlg.obj
 0001:00031d74       __unwindfunclet$?OnOK@CPixProDlg@@MAEXXZ$2 67db2d74 f   PixProDlg.obj
 0001:00031d7f       __unwindfunclet$?OnOK@CPixProDlg@@MAEXXZ$3 67db2d7f f   PixProDlg.obj
 0001:00031d8a       __unwindfunclet$?OnOK@CPixProDlg@@MAEXXZ$4 67db2d8a f   PixProDlg.obj
 0001:00031d95       __unwindfunclet$?OnOK@CPixProDlg@@MAEXXZ$5 67db2d95 f   PixProDlg.obj
 0001:00031da0       __ehhandler$?OnOK@CPixProDlg@@MAEXXZ 67db2da0 f   PixProDlg.obj
 0001:00031dc8       __unwindfunclet$?FillFunctionCombo@CPixProDlg@@IAEXXZ$0 67db2dc8 f   PixProDlg.obj
 0001:00031dda       __ehhandler$?FillFunctionCombo@CPixProDlg@@IAEXXZ 67db2dda f   PixProDlg.obj
 0001:00031e10       __unwindfunclet$??1CPixProWAvgDlg@@UAE@XZ$0 67db2e10 f   PixProDlg.obj
 0001:00031e18       __ehhandler$??1CPixProWAvgDlg@@UAE@XZ 67db2e18 f   PixProDlg.obj
 0001:00031e40       __unwindfunclet$??1CPixProIntScaleDlg@@UAE@XZ$0 67db2e40 f   PixProDlg.obj
 0001:00031e48       __ehhandler$??1CPixProIntScaleDlg@@UAE@XZ 67db2e48 f   PixProDlg.obj
 0001:00031e70       __unwindfunclet$??1CPixProDlg@@UAE@XZ$0 67db2e70 f   PixProDlg.obj
 0001:00031e78       __unwindfunclet$??1CPixProDlg@@UAE@XZ$1 67db2e78 f   PixProDlg.obj
 0001:00031e83       __unwindfunclet$??1CPixProDlg@@UAE@XZ$2 67db2e83 f   PixProDlg.obj
 0001:00031e91       __unwindfunclet$??1CPixProDlg@@UAE@XZ$3 67db2e91 f   PixProDlg.obj
 0001:00031e9f       __unwindfunclet$??1CPixProDlg@@UAE@XZ$4 67db2e9f f   PixProDlg.obj
 0001:00031ead       __ehhandler$??1CPixProDlg@@UAE@XZ 67db2ead f   PixProDlg.obj
 0001:00031ed0       __unwindfunclet$??0CPixProIntScaleDlg@@QAE@PAVCWnd@@PAUCORPPL_FCT_PROP@@PAVSapPixProParams@@@Z$0 67db2ed0 f   PixProIntScaleDlg.obj
 0001:00031ed8       __ehhandler$??0CPixProIntScaleDlg@@QAE@PAVCWnd@@PAUCORPPL_FCT_PROP@@PAVSapPixProParams@@@Z 67db2ed8 f   PixProIntScaleDlg.obj
 0001:00031f00       __unwindfunclet$??0CPixProWAvgDlg@@QAE@PAVCWnd@@PAUCORPPL_FCT_PROP@@PAVSapPixProParams@@@Z$0 67db2f00 f   PixProWAvgDlg.obj
 0001:00031f08       __ehhandler$??0CPixProWAvgDlg@@QAE@PAVCWnd@@PAUCORPPL_FCT_PROP@@PAVSapPixProParams@@@Z 67db2f08 f   PixProWAvgDlg.obj
 0001:00031f30       __unwindfunclet$??0CRawFileDlg@@QAE@PAVCWnd@@HHHH@Z$0 67db2f30 f   RawFileDlg.obj
 0001:00031f38       __unwindfunclet$??0CRawFileDlg@@QAE@PAVCWnd@@HHHH@Z$1 67db2f38 f   RawFileDlg.obj
 0001:00031f46       __ehhandler$??0CRawFileDlg@@QAE@PAVCWnd@@HHHH@Z 67db2f46 f   RawFileDlg.obj
 0001:00031f70       __unwindfunclet$?SapClassGuiInitModule@@YAXXZ$0 67db2f70 f   SapClassGui.obj
 0001:00031f81       __ehhandler$?SapClassGuiInitModule@@YAXXZ 67db2f81 f   SapClassGui.obj
 0001:00031fa0       __unwindfunclet$??1CViewDlg@@UAE@XZ$0 67db2fa0 f   SapClassGui.obj
 0001:00031fa8       __unwindfunclet$??1CViewDlg@@UAE@XZ$1 67db2fa8 f   SapClassGui.obj
 0001:00031fb3       __unwindfunclet$??1CViewDlg@@UAE@XZ$2 67db2fb3 f   SapClassGui.obj
 0001:00031fc1       __unwindfunclet$??1CViewDlg@@UAE@XZ$3 67db2fc1 f   SapClassGui.obj
 0001:00031fcf       __ehhandler$??1CViewDlg@@UAE@XZ 67db2fcf f   SapClassGui.obj
 0001:00031ff0       __unwindfunclet$??0CTiffFileDlg@@QAE@PAVCWnd@@HH@Z$0 67db2ff0 f   TiffFileDlg.obj
 0001:00031ff8       __ehhandler$??0CTiffFileDlg@@QAE@PAVCWnd@@HH@Z 67db2ff8 f   TiffFileDlg.obj
 0001:00032020       __unwindfunclet$??0CViewDlg@@QAE@PAVCWnd@@PAVSapView@@@Z$0 67db3020 f   ViewDlg.obj
 0001:00032028       __unwindfunclet$??0CViewDlg@@QAE@PAVCWnd@@PAVSapView@@@Z$1 67db3028 f   ViewDlg.obj
 0001:00032033       __unwindfunclet$??0CViewDlg@@QAE@PAVCWnd@@PAVSapView@@@Z$2 67db3033 f   ViewDlg.obj
 0001:00032041       __unwindfunclet$??0CViewDlg@@QAE@PAVCWnd@@PAVSapView@@@Z$3 67db3041 f   ViewDlg.obj
 0001:0003204f       __unwindfunclet$??0CViewDlg@@QAE@PAVCWnd@@PAVSapView@@@Z$4 67db304f f   ViewDlg.obj
 0001:0003205d       __unwindfunclet$??0CViewDlg@@QAE@PAVCWnd@@PAVSapView@@@Z$5 67db305d f   ViewDlg.obj
 0001:0003206f       __ehhandler$??0CViewDlg@@QAE@PAVCWnd@@PAVSapView@@@Z 67db306f f   ViewDlg.obj
 0001:00032090       ??__E?m_TiffCompressionTypes@CLoadSaveDlg@@1PAV?$CStringT@DV?$StrTraitMFC_DLL@DV?$ChTraitsCRT@D@ATL@@@@@ATL@@A@@YAXXZ 67db3090 f   LoadSaveDlg.obj
 0001:00032160       ??__Eclash@Inconsistent_definition_of_symbol__ATL_MIXED@@YAXXZ 67db3160 f   SapClassGui.obj
 0001:00032180       ??__Eclash@Define_the_symbol__ATL_MIXED@@YAXXZ 67db3180 f   SapClassGui.obj
 0001:000321a0       ??__Eclash@Inconsistent_definition_of_symbol__ATL_MIXED@@YAXXZ 67db31a0 f   mfcs90d:nolib.obj
 0001:000321b0       ??__Eclash@Define_the_symbol__ATL_MIXED@@YAXXZ 67db31b0 f   mfcs90d:nolib.obj
 0001:000321d0       ??__Eclash@Inconsistent_definition_of_symbol__ATL_MIXED@@YAXXZ 67db31d0 f   mfcs90d:stdafx.obj
 0001:000321e0       ??__Eclash@Define_the_symbol__ATL_MIXED@@YAXXZ 67db31e0 f   mfcs90d:stdafx.obj
 0001:00032200       ??__Eg_Allocator@@YAXXZ    67db3200 f   atlsd:Externs.obj
 0001:00032220       ??__Eg_bInitialized@@YAXXZ 67db3220 f   atlsd:Externs.obj
 0001:00032240       ??__E?s_trace@CTrace@ATL@@2V12@A@@YAXXZ 67db3240 f   atlsd:Externs.obj
 0001:00032270       ??__EatlTraceGeneral@ATL@@YAXXZ 67db3270 f   atlsd:atltrace.obj
 0001:00032290       ??__EatlTraceCOM@ATL@@YAXXZ 67db3290 f   atlsd:atltrace.obj
 0001:000322b0       ??__EatlTraceQI@ATL@@YAXXZ 67db32b0 f   atlsd:atltrace.obj
 0001:000322d0       ??__EatlTraceRegistrar@ATL@@YAXXZ 67db32d0 f   atlsd:atltrace.obj
 0001:000322f0       ??__EatlTraceRefcount@ATL@@YAXXZ 67db32f0 f   atlsd:atltrace.obj
 0001:00032310       ??__EatlTraceWindowing@ATL@@YAXXZ 67db3310 f   atlsd:atltrace.obj
 0001:00032330       ??__EatlTraceControls@ATL@@YAXXZ 67db3330 f   atlsd:atltrace.obj
 0001:00032350       ??__EatlTraceHosting@ATL@@YAXXZ 67db3350 f   atlsd:atltrace.obj
 0001:00032370       ??__EatlTraceDBClient@ATL@@YAXXZ 67db3370 f   atlsd:atltrace.obj
 0001:00032390       ??__EatlTraceDBProvider@ATL@@YAXXZ 67db3390 f   atlsd:atltrace.obj
 0001:000323b0       ??__EatlTraceSnapin@ATL@@YAXXZ 67db33b0 f   atlsd:atltrace.obj
 0001:000323d0       ??__EatlTraceNotImpl@ATL@@YAXXZ 67db33d0 f   atlsd:atltrace.obj
 0001:000323f0       ??__EatlTraceAllocation@ATL@@YAXXZ 67db33f0 f   atlsd:atltrace.obj
 0001:00032410       ??__EatlTraceException@ATL@@YAXXZ 67db3410 f   atlsd:atltrace.obj
 0001:00032430       ??__EatlTraceTime@ATL@@YAXXZ 67db3430 f   atlsd:atltrace.obj
 0001:00032450       ??__EatlTraceCache@ATL@@YAXXZ 67db3450 f   atlsd:atltrace.obj
 0001:00032470       ??__EatlTraceStencil@ATL@@YAXXZ 67db3470 f   atlsd:atltrace.obj
 0001:00032490       ??__EatlTraceString@ATL@@YAXXZ 67db3490 f   atlsd:atltrace.obj
 0001:000324b0       ??__EatlTraceMap@ATL@@YAXXZ 67db34b0 f   atlsd:atltrace.obj
 0001:000324d0       ??__EatlTraceUtil@ATL@@YAXXZ 67db34d0 f   atlsd:atltrace.obj
 0001:000324f0       ??__EatlTraceSecurity@ATL@@YAXXZ 67db34f0 f   atlsd:atltrace.obj
 0001:00032510       ??__EatlTraceSync@ATL@@YAXXZ 67db3510 f   atlsd:atltrace.obj
 0001:00032530       ??__EatlTraceISAPI@ATL@@YAXXZ 67db3530 f   atlsd:atltrace.obj
 0001:00032550       ??__EatlTraceUser@ATL@@YAXXZ 67db3550 f   atlsd:atltrace.obj
 0001:00032570       ??__EatlTraceUser2@ATL@@YAXXZ 67db3570 f   atlsd:atltrace.obj
 0001:00032590       ??__EatlTraceUser3@ATL@@YAXXZ 67db3590 f   atlsd:atltrace.obj
 0001:000325b0       ??__EatlTraceUser4@ATL@@YAXXZ 67db35b0 f   atlsd:atltrace.obj
 0001:000325d0       ??__F?m_TiffCompressionTypes@CLoadSaveDlg@@1PAV?$CStringT@DV?$StrTraitMFC_DLL@DV?$ChTraitsCRT@D@ATL@@@@@ATL@@A@@YAXXZ 67db35d0 f   LoadSaveDlg.obj
 0001:000325f0       ??__Fg_Allocator@@YAXXZ    67db35f0 f   atlsd:Externs.obj
 0001:00032610       ??__F?s_trace@CTrace@ATL@@2V12@A@@YAXXZ 67db3610 f   atlsd:Externs.obj
